
./shifting_example:     file format elf32-littlearm


Disassembly of section .init:

00010168 <_init>:
   10168:	e92d4008 	push	{r3, lr}
   1016c:	eb000080 	bl	10374 <call_weak_fn>
   10170:	e8bd8008 	pop	{r3, pc}

Disassembly of section .iplt:

00010174 <.iplt>:
   10174:	4778      	bx	pc
   10176:	e7fd      	b.n	10174 <_init+0xc>
   10178:	e28fc600 	add	ip, pc, #0, 12
   1017c:	e28cca51 	add	ip, ip, #331776	@ 0x51000
   10180:	e5bcfe8c 	ldr	pc, [ip, #3724]!	@ 0xe8c
   10184:	4778      	bx	pc
   10186:	e7fd      	b.n	10184 <_init+0x1c>
   10188:	e28fc600 	add	ip, pc, #0, 12
   1018c:	e28cca51 	add	ip, ip, #331776	@ 0x51000
   10190:	e5bcfe80 	ldr	pc, [ip, #3712]!	@ 0xe80

Disassembly of section .text:

000101c0 <abort>:
   101c0:	4a4e      	ldr	r2, [pc, #312]	@ (102fc <abort+0x13c>)
   101c2:	ee1d 4f70 	mrc	15, 0, r4, cr13, cr0, {3}
   101c6:	4b4e      	ldr	r3, [pc, #312]	@ (10300 <abort+0x140>)
   101c8:	f5a4 64a0 	sub.w	r4, r4, #1280	@ 0x500
   101cc:	447a      	add	r2, pc
   101ce:	484d      	ldr	r0, [pc, #308]	@ (10304 <abort+0x144>)
   101d0:	b580      	push	{r7, lr}
   101d2:	4478      	add	r0, pc
   101d4:	58d3      	ldr	r3, [r2, r3]
   101d6:	b0a4      	sub	sp, #144	@ 0x90
   101d8:	681b      	ldr	r3, [r3, #0]
   101da:	9323      	str	r3, [sp, #140]	@ 0x8c
   101dc:	f04f 0300 	mov.w	r3, #0
   101e0:	6883      	ldr	r3, [r0, #8]
   101e2:	42a3      	cmp	r3, r4
   101e4:	d010      	beq.n	10208 <abort+0x48>
   101e6:	2301      	movs	r3, #1
   101e8:	e850 2f00 	ldrex	r2, [r0]
   101ec:	2a00      	cmp	r2, #0
   101ee:	d105      	bne.n	101fc <abort+0x3c>
   101f0:	e840 3100 	strex	r1, r3, [r0]
   101f4:	2900      	cmp	r1, #0
   101f6:	d1f7      	bne.n	101e8 <abort+0x28>
   101f8:	f3bf 8f5b 	dmb	ish
   101fc:	d001      	beq.n	10202 <abort+0x42>
   101fe:	f003 fe8b 	bl	13f18 <__lll_lock_wait_private>
   10202:	4b41      	ldr	r3, [pc, #260]	@ (10308 <abort+0x148>)
   10204:	447b      	add	r3, pc
   10206:	609c      	str	r4, [r3, #8]
   10208:	4b40      	ldr	r3, [pc, #256]	@ (1030c <abort+0x14c>)
   1020a:	447b      	add	r3, pc
   1020c:	68da      	ldr	r2, [r3, #12]
   1020e:	6859      	ldr	r1, [r3, #4]
   10210:	3101      	adds	r1, #1
   10212:	6059      	str	r1, [r3, #4]
   10214:	b95a      	cbnz	r2, 1022e <abort+0x6e>
   10216:	2001      	movs	r0, #1
   10218:	2620      	movs	r6, #32
   1021a:	2700      	movs	r7, #0
   1021c:	60d8      	str	r0, [r3, #12]
   1021e:	e9cd 6700 	strd	r6, r7, [sp]
   10222:	4669      	mov	r1, sp
   10224:	2308      	movs	r3, #8
   10226:	f04f 0caf 	mov.w	ip, #175	@ 0xaf
   1022a:	f000 fbc9 	bl	109c0 <__libc_do_syscall>
   1022e:	4838      	ldr	r0, [pc, #224]	@ (10310 <abort+0x150>)
   10230:	4478      	add	r0, pc
   10232:	68c3      	ldr	r3, [r0, #12]
   10234:	2b01      	cmp	r3, #1
   10236:	d131      	bne.n	1029c <abort+0xdc>
   10238:	6843      	ldr	r3, [r0, #4]
   1023a:	2200      	movs	r2, #0
   1023c:	60c2      	str	r2, [r0, #12]
   1023e:	3b01      	subs	r3, #1
   10240:	6043      	str	r3, [r0, #4]
   10242:	b963      	cbnz	r3, 1025e <abort+0x9e>
   10244:	6083      	str	r3, [r0, #8]
   10246:	f3bf 8f5b 	dmb	ish
   1024a:	e850 2f00 	ldrex	r2, [r0]
   1024e:	e840 3100 	strex	r1, r3, [r0]
   10252:	2900      	cmp	r1, #0
   10254:	d1f9      	bne.n	1024a <abort+0x8a>
   10256:	2a01      	cmp	r2, #1
   10258:	dd01      	ble.n	1025e <abort+0x9e>
   1025a:	f003 feab 	bl	13fb4 <__lll_lock_wake_private>
   1025e:	2006      	movs	r0, #6
   10260:	f017 f95e 	bl	27520 <raise>
   10264:	482b      	ldr	r0, [pc, #172]	@ (10314 <abort+0x154>)
   10266:	4478      	add	r0, pc
   10268:	6883      	ldr	r3, [r0, #8]
   1026a:	42a3      	cmp	r3, r4
   1026c:	d010      	beq.n	10290 <abort+0xd0>
   1026e:	2301      	movs	r3, #1
   10270:	e850 2f00 	ldrex	r2, [r0]
   10274:	2a00      	cmp	r2, #0
   10276:	d105      	bne.n	10284 <abort+0xc4>
   10278:	e840 3100 	strex	r1, r3, [r0]
   1027c:	2900      	cmp	r1, #0
   1027e:	d1f7      	bne.n	10270 <abort+0xb0>
   10280:	f3bf 8f5b 	dmb	ish
   10284:	d001      	beq.n	1028a <abort+0xca>
   10286:	f003 fe47 	bl	13f18 <__lll_lock_wait_private>
   1028a:	4b23      	ldr	r3, [pc, #140]	@ (10318 <abort+0x158>)
   1028c:	447b      	add	r3, pc
   1028e:	609c      	str	r4, [r3, #8]
   10290:	4a22      	ldr	r2, [pc, #136]	@ (1031c <abort+0x15c>)
   10292:	447a      	add	r2, pc
   10294:	6853      	ldr	r3, [r2, #4]
   10296:	3301      	adds	r3, #1
   10298:	6053      	str	r3, [r2, #4]
   1029a:	e001      	b.n	102a0 <abort+0xe0>
   1029c:	2b02      	cmp	r3, #2
   1029e:	d112      	bne.n	102c6 <abort+0x106>
   102a0:	4c1f      	ldr	r4, [pc, #124]	@ (10320 <abort+0x160>)
   102a2:	466b      	mov	r3, sp
   102a4:	228c      	movs	r2, #140	@ 0x8c
   102a6:	2100      	movs	r1, #0
   102a8:	447c      	add	r4, pc
   102aa:	4618      	mov	r0, r3
   102ac:	2503      	movs	r5, #3
   102ae:	60e5      	str	r5, [r4, #12]
   102b0:	f008 ec6e 	blx	18b90 <memset>
   102b4:	2200      	movs	r2, #0
   102b6:	4601      	mov	r1, r0
   102b8:	2006      	movs	r0, #6
   102ba:	f04f 33ff 	mov.w	r3, #4294967295	@ 0xffffffff
   102be:	e9cd 3301 	strd	r3, r3, [sp, #4]
   102c2:	f017 f941 	bl	27548 <__sigaction>
   102c6:	4b17      	ldr	r3, [pc, #92]	@ (10324 <abort+0x164>)
   102c8:	447b      	add	r3, pc
   102ca:	68da      	ldr	r2, [r3, #12]
   102cc:	2a03      	cmp	r2, #3
   102ce:	d104      	bne.n	102da <abort+0x11a>
   102d0:	2006      	movs	r0, #6
   102d2:	2204      	movs	r2, #4
   102d4:	60da      	str	r2, [r3, #12]
   102d6:	f017 f923 	bl	27520 <raise>
   102da:	4b13      	ldr	r3, [pc, #76]	@ (10328 <abort+0x168>)
   102dc:	447b      	add	r3, pc
   102de:	68da      	ldr	r2, [r3, #12]
   102e0:	2a04      	cmp	r2, #4
   102e2:	d102      	bne.n	102ea <abort+0x12a>
   102e4:	2205      	movs	r2, #5
   102e6:	60da      	str	r2, [r3, #12]
   102e8:	deff      	udf	#255	@ 0xff
   102ea:	2a05      	cmp	r2, #5
   102ec:	d104      	bne.n	102f8 <abort+0x138>
   102ee:	207f      	movs	r0, #127	@ 0x7f
   102f0:	2206      	movs	r2, #6
   102f2:	60da      	str	r2, [r3, #12]
   102f4:	f009 ff18 	bl	1a128 <_exit>
   102f8:	deff      	udf	#255	@ 0xff
   102fa:	bf00      	nop
   102fc:	00051e30 	.word	0x00051e30
   10300:	00000040 	.word	0x00000040
   10304:	0005326e 	.word	0x0005326e
   10308:	0005323c 	.word	0x0005323c
   1030c:	00053236 	.word	0x00053236
   10310:	00053210 	.word	0x00053210
   10314:	000531da 	.word	0x000531da
   10318:	000531b4 	.word	0x000531b4
   1031c:	000531ae 	.word	0x000531ae
   10320:	00053198 	.word	0x00053198
   10324:	00053178 	.word	0x00053178
   10328:	00053164 	.word	0x00053164

0001032c <_dl_start>:
   1032c:	b508      	push	{r3, lr}
   1032e:	f7ff ff47 	bl	101c0 <abort>

00010332 <_Unwind_GetDataRelBase>:
   10332:	b508      	push	{r3, lr}
   10334:	f7ff ff44 	bl	101c0 <abort>

00010338 <_Unwind_GetTextRelBase>:
   10338:	b508      	push	{r3, lr}
   1033a:	f7ff fffa 	bl	10332 <_Unwind_GetDataRelBase>
	...

00010340 <_start>:
   10340:	f04f 0b00 	mov.w	fp, #0
   10344:	f04f 0e00 	mov.w	lr, #0
   10348:	bc02      	pop	{r1}
   1034a:	466a      	mov	r2, sp
   1034c:	b404      	push	{r2}
   1034e:	b401      	push	{r0}
   10350:	f8df a018 	ldr.w	sl, [pc, #24]	@ 1036c <_start+0x2c>
   10354:	a305      	add	r3, pc, #20	@ (adr r3, 1036c <_start+0x2c>)
   10356:	449a      	add	sl, r3
   10358:	f04f 0300 	mov.w	r3, #0
   1035c:	b408      	push	{r3}
   1035e:	4804      	ldr	r0, [pc, #16]	@ (10370 <_start+0x30>)
   10360:	f85a 0000 	ldr.w	r0, [sl, r0]
   10364:	f000 f8e8 	bl	10538 <__libc_start_main>
   10368:	f7ff ff2a 	bl	101c0 <abort>
   1036c:	00051c94 	.word	0x00051c94
   10370:	00000164 	.word	0x00000164

00010374 <call_weak_fn>:
   10374:	e59f3014 	ldr	r3, [pc, #20]	@ 10390 <call_weak_fn+0x1c>
   10378:	e59f2014 	ldr	r2, [pc, #20]	@ 10394 <call_weak_fn+0x20>
   1037c:	e08f3003 	add	r3, pc, r3
   10380:	e7932002 	ldr	r2, [r3, r2]
   10384:	e3520000 	cmp	r2, #0
   10388:	012fff1e 	bxeq	lr
   1038c:	e320f000 	nop	{0}
   10390:	00051c7c 	.word	0x00051c7c
   10394:	0000021c 	.word	0x0000021c

00010398 <deregister_tm_clones>:
   10398:	f642 70f8 	movw	r0, #12280	@ 0x2ff8
   1039c:	f2c0 0006 	movt	r0, #6
   103a0:	f642 73f8 	movw	r3, #12280	@ 0x2ff8
   103a4:	f2c0 0306 	movt	r3, #6
   103a8:	4283      	cmp	r3, r0
   103aa:	d005      	beq.n	103b8 <deregister_tm_clones+0x20>
   103ac:	f240 0300 	movw	r3, #0
   103b0:	f2c0 0300 	movt	r3, #0
   103b4:	b103      	cbz	r3, 103b8 <deregister_tm_clones+0x20>
   103b6:	4718      	bx	r3
   103b8:	4770      	bx	lr
   103ba:	bf00      	nop

000103bc <register_tm_clones>:
   103bc:	f642 70f8 	movw	r0, #12280	@ 0x2ff8
   103c0:	f2c0 0006 	movt	r0, #6
   103c4:	f642 73f8 	movw	r3, #12280	@ 0x2ff8
   103c8:	f2c0 0306 	movt	r3, #6
   103cc:	1a1b      	subs	r3, r3, r0
   103ce:	0fd9      	lsrs	r1, r3, #31
   103d0:	eb01 01a3 	add.w	r1, r1, r3, asr #2
   103d4:	1049      	asrs	r1, r1, #1
   103d6:	d005      	beq.n	103e4 <register_tm_clones+0x28>
   103d8:	f240 0300 	movw	r3, #0
   103dc:	f2c0 0300 	movt	r3, #0
   103e0:	b103      	cbz	r3, 103e4 <register_tm_clones+0x28>
   103e2:	4718      	bx	r3
   103e4:	4770      	bx	lr
   103e6:	bf00      	nop

000103e8 <__do_global_dtors_aux>:
   103e8:	b510      	push	{r4, lr}
   103ea:	f642 74f8 	movw	r4, #12280	@ 0x2ff8
   103ee:	f2c0 0406 	movt	r4, #6
   103f2:	7823      	ldrb	r3, [r4, #0]
   103f4:	b973      	cbnz	r3, 10414 <__do_global_dtors_aux+0x2c>
   103f6:	f7ff ffcf 	bl	10398 <deregister_tm_clones>
   103fa:	f240 0300 	movw	r3, #0
   103fe:	f2c0 0300 	movt	r3, #0
   10402:	b12b      	cbz	r3, 10410 <__do_global_dtors_aux+0x28>
   10404:	f24e 1084 	movw	r0, #57732	@ 0xe184
   10408:	f2c0 0005 	movt	r0, #5
   1040c:	f3af 8000 	nop.w
   10410:	2301      	movs	r3, #1
   10412:	7023      	strb	r3, [r4, #0]
   10414:	bd10      	pop	{r4, pc}
   10416:	bf00      	nop

00010418 <frame_dummy>:
   10418:	b508      	push	{r3, lr}
   1041a:	f240 0300 	movw	r3, #0
   1041e:	f2c0 0300 	movt	r3, #0
   10422:	b14b      	cbz	r3, 10438 <frame_dummy+0x20>
   10424:	f642 71fc 	movw	r1, #12284	@ 0x2ffc
   10428:	f2c0 0106 	movt	r1, #6
   1042c:	f24e 1084 	movw	r0, #57732	@ 0xe184
   10430:	f2c0 0005 	movt	r0, #5
   10434:	f3af 8000 	nop.w
   10438:	e8bd 4008 	ldmia.w	sp!, {r3, lr}
   1043c:	e7be      	b.n	103bc <register_tm_clones>
   1043e:	bf00      	nop

00010440 <main>:
   10440:	b580      	push	{r7, lr}
   10442:	b082      	sub	sp, #8
   10444:	af00      	add	r7, sp, #0
   10446:	2301      	movs	r3, #1
   10448:	603b      	str	r3, [r7, #0]
   1044a:	2301      	movs	r3, #1
   1044c:	607b      	str	r3, [r7, #4]
   1044e:	683b      	ldr	r3, [r7, #0]
   10450:	005b      	lsls	r3, r3, #1
   10452:	603b      	str	r3, [r7, #0]
   10454:	687b      	ldr	r3, [r7, #4]
   10456:	009b      	lsls	r3, r3, #2
   10458:	607b      	str	r3, [r7, #4]
   1045a:	687a      	ldr	r2, [r7, #4]
   1045c:	6839      	ldr	r1, [r7, #0]
   1045e:	4b0a      	ldr	r3, [pc, #40]	@ (10488 <main+0x48>)
   10460:	447b      	add	r3, pc
   10462:	4618      	mov	r0, r3
   10464:	f000 fcd4 	bl	10e10 <_IO_printf>
   10468:	683b      	ldr	r3, [r7, #0]
   1046a:	0fda      	lsrs	r2, r3, #31
   1046c:	4413      	add	r3, r2
   1046e:	105b      	asrs	r3, r3, #1
   10470:	603b      	str	r3, [r7, #0]
   10472:	6839      	ldr	r1, [r7, #0]
   10474:	4b05      	ldr	r3, [pc, #20]	@ (1048c <main+0x4c>)
   10476:	447b      	add	r3, pc
   10478:	4618      	mov	r0, r3
   1047a:	f000 fcc9 	bl	10e10 <_IO_printf>
   1047e:	2300      	movs	r3, #0
   10480:	4618      	mov	r0, r3
   10482:	3708      	adds	r7, #8
   10484:	46bd      	mov	sp, r7
   10486:	bd80      	pop	{r7, pc}
   10488:	00036fe8 	.word	0x00036fe8
   1048c:	00036fde 	.word	0x00036fde

00010490 <call_fini>:
   10490:	b538      	push	{r3, r4, r5, lr}
   10492:	4d08      	ldr	r5, [pc, #32]	@ (104b4 <call_fini+0x24>)
   10494:	4c08      	ldr	r4, [pc, #32]	@ (104b8 <call_fini+0x28>)
   10496:	447d      	add	r5, pc
   10498:	447c      	add	r4, pc
   1049a:	1b2c      	subs	r4, r5, r4
   1049c:	10a4      	asrs	r4, r4, #2
   1049e:	d004      	beq.n	104aa <call_fini+0x1a>
   104a0:	f855 3d04 	ldr.w	r3, [r5, #-4]!
   104a4:	4798      	blx	r3
   104a6:	3c01      	subs	r4, #1
   104a8:	d1fa      	bne.n	104a0 <call_fini+0x10>
   104aa:	e8bd 4038 	ldmia.w	sp!, {r3, r4, r5, lr}
   104ae:	f036 bf6f 	b.w	47390 <___fini_from_thumb>
   104b2:	bf00      	nop
   104b4:	0004f94e 	.word	0x0004f94e
   104b8:	0004f948 	.word	0x0004f948

000104bc <__libc_start_call_main>:
   104bc:	b500      	push	{lr}
   104be:	4603      	mov	r3, r0
   104c0:	b0cb      	sub	sp, #300	@ 0x12c
   104c2:	a804      	add	r0, sp, #16
   104c4:	e9cd 3101 	strd	r3, r1, [sp, #4]
   104c8:	9203      	str	r2, [sp, #12]
   104ca:	f000 fa81 	bl	109d0 <_setjmp>
   104ce:	b9b8      	cbnz	r0, 10500 <__libc_start_call_main+0x44>
   104d0:	ee1d 3f70 	mrc	15, 0, r3, cr13, cr0, {3}
   104d4:	9903      	ldr	r1, [sp, #12]
   104d6:	f5a3 6291 	sub.w	r2, r3, #1160	@ 0x488
   104da:	f5a3 6ca0 	sub.w	ip, r3, #1280	@ 0x500
   104de:	f2a3 4384 	subw	r3, r3, #1156	@ 0x484
   104e2:	9802      	ldr	r0, [sp, #8]
   104e4:	6812      	ldr	r2, [r2, #0]
   104e6:	681b      	ldr	r3, [r3, #0]
   104e8:	9346      	str	r3, [sp, #280]	@ 0x118
   104ea:	4b11      	ldr	r3, [pc, #68]	@ (10530 <__libc_start_call_main+0x74>)
   104ec:	9247      	str	r2, [sp, #284]	@ 0x11c
   104ee:	447b      	add	r3, pc
   104f0:	681a      	ldr	r2, [r3, #0]
   104f2:	ab04      	add	r3, sp, #16
   104f4:	f8cc 307c 	str.w	r3, [ip, #124]	@ 0x7c
   104f8:	9b01      	ldr	r3, [sp, #4]
   104fa:	4798      	blx	r3
   104fc:	f000 fc7e 	bl	10dfc <exit>
   10500:	f003 fd6e 	bl	13fe0 <__nptl_deallocate_tsd>
   10504:	4b0b      	ldr	r3, [pc, #44]	@ (10534 <__libc_start_call_main+0x78>)
   10506:	447b      	add	r3, pc
   10508:	e853 0f00 	ldrex	r0, [r3]
   1050c:	3801      	subs	r0, #1
   1050e:	e843 0200 	strex	r2, r0, [r3]
   10512:	2a00      	cmp	r2, #0
   10514:	d1f8      	bne.n	10508 <__libc_start_call_main+0x4c>
   10516:	2800      	cmp	r0, #0
   10518:	d0f0      	beq.n	104fc <__libc_start_call_main+0x40>
   1051a:	2300      	movs	r3, #0
   1051c:	f04f 0c01 	mov.w	ip, #1
   10520:	4618      	mov	r0, r3
   10522:	f000 fa4d 	bl	109c0 <__libc_do_syscall>
   10526:	4618      	mov	r0, r3
   10528:	f000 fa4a 	bl	109c0 <__libc_do_syscall>
   1052c:	e7f8      	b.n	10520 <__libc_start_call_main+0x64>
   1052e:	bf00      	nop
   10530:	000551b6 	.word	0x000551b6
   10534:	00051d36 	.word	0x00051d36

00010538 <__libc_start_main>:
   10538:	e92d 4880 	stmdb	sp!, {r7, fp, lr}
   1053c:	4617      	mov	r7, r2
   1053e:	4b5a      	ldr	r3, [pc, #360]	@ (106a8 <__libc_start_main+0x170>)
   10540:	b083      	sub	sp, #12
   10542:	4a5a      	ldr	r2, [pc, #360]	@ (106ac <__libc_start_main+0x174>)
   10544:	447b      	add	r3, pc
   10546:	460e      	mov	r6, r1
   10548:	447a      	add	r2, pc
   1054a:	f8df 8164 	ldr.w	r8, [pc, #356]	@ 106b0 <__libc_start_main+0x178>
   1054e:	9908      	ldr	r1, [sp, #32]
   10550:	6019      	str	r1, [r3, #0]
   10552:	1c73      	adds	r3, r6, #1
   10554:	9001      	str	r0, [sp, #4]
   10556:	44f8      	add	r8, pc
   10558:	eb07 0083 	add.w	r0, r7, r3, lsl #2
   1055c:	6010      	str	r0, [r2, #0]
   1055e:	f850 5b04 	ldr.w	r5, [r0], #4
   10562:	2d00      	cmp	r5, #0
   10564:	d1fb      	bne.n	1055e <__libc_start_main+0x26>
   10566:	f00b fe45 	bl	1c1f4 <_dl_aux_init>
   1056a:	4b52      	ldr	r3, [pc, #328]	@ (106b4 <__libc_start_main+0x17c>)
   1056c:	447b      	add	r3, pc
   1056e:	6818      	ldr	r0, [r3, #0]
   10570:	f00b fcac 	bl	1becc <__tunables_init>
   10574:	4b50      	ldr	r3, [pc, #320]	@ (106b8 <__libc_start_main+0x180>)
   10576:	f858 4003 	ldr.w	r4, [r8, r3]
   1057a:	4b50      	ldr	r3, [pc, #320]	@ (106bc <__libc_start_main+0x184>)
   1057c:	f858 3003 	ldr.w	r3, [r8, r3]
   10580:	429c      	cmp	r4, r3
   10582:	d220      	bcs.n	105c6 <__libc_start_main+0x8e>
   10584:	f103 3aff 	add.w	sl, r3, #4294967295	@ 0xffffffff
   10588:	f8df b134 	ldr.w	fp, [pc, #308]	@ 106c0 <__libc_start_main+0x188>
   1058c:	ebaa 0a04 	sub.w	sl, sl, r4
   10590:	3408      	adds	r4, #8
   10592:	44fb      	add	fp, pc
   10594:	ea4f 0ada 	mov.w	sl, sl, lsr #3
   10598:	e00b      	b.n	105b2 <__libc_start_main+0x7a>
   1059a:	f8d9 3000 	ldr.w	r3, [r9]
   1059e:	3408      	adds	r4, #8
   105a0:	f8db 0000 	ldr.w	r0, [fp]
   105a4:	4798      	blx	r3
   105a6:	1c6b      	adds	r3, r5, #1
   105a8:	4555      	cmp	r5, sl
   105aa:	f8c9 0000 	str.w	r0, [r9]
   105ae:	d00a      	beq.n	105c6 <__libc_start_main+0x8e>
   105b0:	461d      	mov	r5, r3
   105b2:	f814 3c04 	ldrb.w	r3, [r4, #-4]
   105b6:	f854 9c08 	ldr.w	r9, [r4, #-8]
   105ba:	2ba0      	cmp	r3, #160	@ 0xa0
   105bc:	d0ed      	beq.n	1059a <__libc_start_main+0x62>
   105be:	4841      	ldr	r0, [pc, #260]	@ (106c4 <__libc_start_main+0x18c>)
   105c0:	4478      	add	r0, pc
   105c2:	f003 fc4d 	bl	13e60 <__libc_fatal>
   105c6:	f000 f8e9 	bl	1079c <__libc_setup_tls>
   105ca:	4b3f      	ldr	r3, [pc, #252]	@ (106c8 <__libc_start_main+0x190>)
   105cc:	4a3f      	ldr	r2, [pc, #252]	@ (106cc <__libc_start_main+0x194>)
   105ce:	447b      	add	r3, pc
   105d0:	447a      	add	r2, pc
   105d2:	681b      	ldr	r3, [r3, #0]
   105d4:	681b      	ldr	r3, [r3, #0]
   105d6:	f023 03ff 	bic.w	r3, r3, #255	@ 0xff
   105da:	6013      	str	r3, [r2, #0]
   105dc:	4b3c      	ldr	r3, [pc, #240]	@ (106d0 <__libc_start_main+0x198>)
   105de:	f858 3003 	ldr.w	r3, [r8, r3]
   105e2:	b10b      	cbz	r3, 105e8 <__libc_start_main+0xb0>
   105e4:	f3af 8000 	nop.w
   105e8:	4b3a      	ldr	r3, [pc, #232]	@ (106d4 <__libc_start_main+0x19c>)
   105ea:	4a3b      	ldr	r2, [pc, #236]	@ (106d8 <__libc_start_main+0x1a0>)
   105ec:	447b      	add	r3, pc
   105ee:	447a      	add	r2, pc
   105f0:	681b      	ldr	r3, [r3, #0]
   105f2:	685b      	ldr	r3, [r3, #4]
   105f4:	6053      	str	r3, [r2, #4]
   105f6:	9b07      	ldr	r3, [sp, #28]
   105f8:	b123      	cbz	r3, 10604 <__libc_start_main+0xcc>
   105fa:	2200      	movs	r2, #0
   105fc:	4618      	mov	r0, r3
   105fe:	4611      	mov	r1, r2
   10600:	f000 faac 	bl	10b5c <__cxa_atexit>
   10604:	2001      	movs	r0, #1
   10606:	f00c f9db 	bl	1c9c0 <__libc_early_init>
   1060a:	4b34      	ldr	r3, [pc, #208]	@ (106dc <__libc_start_main+0x1a4>)
   1060c:	4639      	mov	r1, r7
   1060e:	4630      	mov	r0, r6
   10610:	447b      	add	r3, pc
   10612:	681a      	ldr	r2, [r3, #0]
   10614:	f00c fa36 	bl	1ca84 <__libc_init_first>
   10618:	4831      	ldr	r0, [pc, #196]	@ (106e0 <__libc_start_main+0x1a8>)
   1061a:	2200      	movs	r2, #0
   1061c:	4611      	mov	r1, r2
   1061e:	4478      	add	r0, pc
   10620:	f000 fa9c 	bl	10b5c <__cxa_atexit>
   10624:	4b2f      	ldr	r3, [pc, #188]	@ (106e4 <__libc_start_main+0x1ac>)
   10626:	447b      	add	r3, pc
   10628:	681b      	ldr	r3, [r3, #0]
   1062a:	2b00      	cmp	r3, #0
   1062c:	d138      	bne.n	106a0 <__libc_start_main+0x168>
   1062e:	4a2e      	ldr	r2, [pc, #184]	@ (106e8 <__libc_start_main+0x1b0>)
   10630:	4b2e      	ldr	r3, [pc, #184]	@ (106ec <__libc_start_main+0x1b4>)
   10632:	4d2f      	ldr	r5, [pc, #188]	@ (106f0 <__libc_start_main+0x1b8>)
   10634:	447a      	add	r2, pc
   10636:	447b      	add	r3, pc
   10638:	447d      	add	r5, pc
   1063a:	eba3 0a05 	sub.w	sl, r3, r5
   1063e:	f8d2 8000 	ldr.w	r8, [r2]
   10642:	42ab      	cmp	r3, r5
   10644:	ea4f 0aaa 	mov.w	sl, sl, asr #2
   10648:	d00a      	beq.n	10660 <__libc_start_main+0x128>
   1064a:	3d04      	subs	r5, #4
   1064c:	2400      	movs	r4, #0
   1064e:	f855 3f04 	ldr.w	r3, [r5, #4]!
   10652:	4642      	mov	r2, r8
   10654:	4639      	mov	r1, r7
   10656:	4630      	mov	r0, r6
   10658:	3401      	adds	r4, #1
   1065a:	4798      	blx	r3
   1065c:	45a2      	cmp	sl, r4
   1065e:	d8f6      	bhi.n	1064e <__libc_start_main+0x116>
   10660:	f7ff ed82 	blx	10168 <_init>
   10664:	4d23      	ldr	r5, [pc, #140]	@ (106f4 <__libc_start_main+0x1bc>)
   10666:	4b24      	ldr	r3, [pc, #144]	@ (106f8 <__libc_start_main+0x1c0>)
   10668:	447d      	add	r5, pc
   1066a:	447b      	add	r3, pc
   1066c:	eba3 0a05 	sub.w	sl, r3, r5
   10670:	42ab      	cmp	r3, r5
   10672:	ea4f 0aaa 	mov.w	sl, sl, asr #2
   10676:	d00a      	beq.n	1068e <__libc_start_main+0x156>
   10678:	3d04      	subs	r5, #4
   1067a:	2400      	movs	r4, #0
   1067c:	f855 3f04 	ldr.w	r3, [r5, #4]!
   10680:	4642      	mov	r2, r8
   10682:	4639      	mov	r1, r7
   10684:	4630      	mov	r0, r6
   10686:	3401      	adds	r4, #1
   10688:	4798      	blx	r3
   1068a:	45a2      	cmp	sl, r4
   1068c:	d8f6      	bhi.n	1067c <__libc_start_main+0x144>
   1068e:	2100      	movs	r1, #0
   10690:	4608      	mov	r0, r1
   10692:	f00a fe53 	bl	1b33c <_dl_debug_initialize>
   10696:	9801      	ldr	r0, [sp, #4]
   10698:	463a      	mov	r2, r7
   1069a:	4631      	mov	r1, r6
   1069c:	f7ff ff0e 	bl	104bc <__libc_start_call_main>
   106a0:	f000 f86a 	bl	10778 <__libc_check_standard_fds>
   106a4:	e7c3      	b.n	1062e <__libc_start_main+0xf6>
   106a6:	bf00      	nop
   106a8:	000513e4 	.word	0x000513e4
   106ac:	0005515c 	.word	0x0005515c
   106b0:	00051aa6 	.word	0x00051aa6
   106b4:	00055138 	.word	0x00055138
   106b8:	000000a8 	.word	0x000000a8
   106bc:	000000fc 	.word	0x000000fc
   106c0:	00055142 	.word	0x00055142
   106c4:	00036e9c 	.word	0x00036e9c
   106c8:	00051346 	.word	0x00051346
   106cc:	0005052c 	.word	0x0005052c
   106d0:	00000110 	.word	0x00000110
   106d4:	00051328 	.word	0x00051328
   106d8:	0005050e 	.word	0x0005050e
   106dc:	00055094 	.word	0x00055094
   106e0:	fffffe6f 	.word	0xfffffe6f
   106e4:	0005241a 	.word	0x0005241a
   106e8:	00055070 	.word	0x00055070
   106ec:	0004f7a6 	.word	0x0004f7a6
   106f0:	0004f7a4 	.word	0x0004f7a4
   106f4:	0004f774 	.word	0x0004f774
   106f8:	0004f776 	.word	0x0004f776

000106fc <check_one_fd>:
   106fc:	b5f0      	push	{r4, r5, r6, r7, lr}
   106fe:	460c      	mov	r4, r1
   10700:	2101      	movs	r1, #1
   10702:	b09d      	sub	sp, #116	@ 0x74
   10704:	4605      	mov	r5, r0
   10706:	f009 fead 	bl	1a464 <__fcntl64_nocancel>
   1070a:	3001      	adds	r0, #1
   1070c:	d001      	beq.n	10712 <check_one_fd+0x16>
   1070e:	b01d      	add	sp, #116	@ 0x74
   10710:	bdf0      	pop	{r4, r5, r6, r7, pc}
   10712:	4b16      	ldr	r3, [pc, #88]	@ (1076c <check_one_fd+0x70>)
   10714:	ee1d 2f70 	mrc	15, 0, r2, cr13, cr0, {3}
   10718:	447b      	add	r3, pc
   1071a:	681b      	ldr	r3, [r3, #0]
   1071c:	58d3      	ldr	r3, [r2, r3]
   1071e:	2b09      	cmp	r3, #9
   10720:	d1f5      	bne.n	1070e <check_one_fd+0x12>
   10722:	f5b4 4f00 	cmp.w	r4, #32768	@ 0x8000
   10726:	d11b      	bne.n	10760 <check_one_fd+0x64>
   10728:	4811      	ldr	r0, [pc, #68]	@ (10770 <check_one_fd+0x74>)
   1072a:	2600      	movs	r6, #0
   1072c:	f240 1703 	movw	r7, #259	@ 0x103
   10730:	4478      	add	r0, pc
   10732:	4621      	mov	r1, r4
   10734:	2200      	movs	r2, #0
   10736:	f009 ff3f 	bl	1a5b8 <__open_nocancel>
   1073a:	4285      	cmp	r5, r0
   1073c:	d10f      	bne.n	1075e <check_one_fd+0x62>
   1073e:	4669      	mov	r1, sp
   10740:	f009 fd04 	bl	1a14c <__fstat64_time64>
   10744:	b958      	cbnz	r0, 1075e <check_one_fd+0x62>
   10746:	9b04      	ldr	r3, [sp, #16]
   10748:	f403 4370 	and.w	r3, r3, #61440	@ 0xf000
   1074c:	f5b3 5f00 	cmp.w	r3, #8192	@ 0x2000
   10750:	d105      	bne.n	1075e <check_one_fd+0x62>
   10752:	e9dd 2308 	ldrd	r2, r3, [sp, #32]
   10756:	42b3      	cmp	r3, r6
   10758:	bf08      	it	eq
   1075a:	42ba      	cmpeq	r2, r7
   1075c:	d0d7      	beq.n	1070e <check_one_fd+0x12>
   1075e:	deff      	udf	#255	@ 0xff
   10760:	4804      	ldr	r0, [pc, #16]	@ (10774 <check_one_fd+0x78>)
   10762:	2600      	movs	r6, #0
   10764:	f240 1707 	movw	r7, #263	@ 0x107
   10768:	4478      	add	r0, pc
   1076a:	e7e2      	b.n	10732 <check_one_fd+0x36>
   1076c:	00051a04 	.word	0x00051a04
   10770:	00036d64 	.word	0x00036d64
   10774:	00036d20 	.word	0x00036d20

00010778 <__libc_check_standard_fds>:
   10778:	b508      	push	{r3, lr}
   1077a:	2000      	movs	r0, #0
   1077c:	f248 0101 	movw	r1, #32769	@ 0x8001
   10780:	f7ff ffbc 	bl	106fc <check_one_fd>
   10784:	f44f 4100 	mov.w	r1, #32768	@ 0x8000
   10788:	2001      	movs	r0, #1
   1078a:	f7ff ffb7 	bl	106fc <check_one_fd>
   1078e:	f44f 4100 	mov.w	r1, #32768	@ 0x8000
   10792:	e8bd 4008 	ldmia.w	sp!, {r3, lr}
   10796:	2002      	movs	r0, #2
   10798:	e7b0      	b.n	106fc <check_one_fd>
   1079a:	bf00      	nop

0001079c <__libc_setup_tls>:
   1079c:	e92d 4ff0 	stmdb	sp!, {r4, r5, r6, r7, r8, r9, sl, fp, lr}
   107a0:	4c78      	ldr	r4, [pc, #480]	@ (10984 <__libc_setup_tls+0x1e8>)
   107a2:	4b79      	ldr	r3, [pc, #484]	@ (10988 <__libc_setup_tls+0x1ec>)
   107a4:	b087      	sub	sp, #28
   107a6:	447c      	add	r4, pc
   107a8:	58e3      	ldr	r3, [r4, r3]
   107aa:	681d      	ldr	r5, [r3, #0]
   107ac:	f00b f98c 	bl	1bac8 <__tls_pre_init_tp>
   107b0:	4a76      	ldr	r2, [pc, #472]	@ (1098c <__libc_setup_tls+0x1f0>)
   107b2:	4b77      	ldr	r3, [pc, #476]	@ (10990 <__libc_setup_tls+0x1f4>)
   107b4:	58a1      	ldr	r1, [r4, r2]
   107b6:	58e2      	ldr	r2, [r4, r3]
   107b8:	680b      	ldr	r3, [r1, #0]
   107ba:	6811      	ldr	r1, [r2, #0]
   107bc:	eb03 1141 	add.w	r1, r3, r1, lsl #5
   107c0:	428b      	cmp	r3, r1
   107c2:	d304      	bcc.n	107ce <__libc_setup_tls+0x32>
   107c4:	e0c8      	b.n	10958 <__libc_setup_tls+0x1bc>
   107c6:	3320      	adds	r3, #32
   107c8:	428b      	cmp	r3, r1
   107ca:	f080 8094 	bcs.w	108f6 <__libc_setup_tls+0x15a>
   107ce:	681a      	ldr	r2, [r3, #0]
   107d0:	2a07      	cmp	r2, #7
   107d2:	d1f8      	bne.n	107c6 <__libc_setup_tls+0x2a>
   107d4:	69df      	ldr	r7, [r3, #28]
   107d6:	2000      	movs	r0, #0
   107d8:	689a      	ldr	r2, [r3, #8]
   107da:	2f20      	cmp	r7, #32
   107dc:	6829      	ldr	r1, [r5, #0]
   107de:	46bb      	mov	fp, r7
   107e0:	bf38      	it	cc
   107e2:	f04f 0b20 	movcc.w	fp, #32
   107e6:	2f01      	cmp	r7, #1
   107e8:	f8d3 a010 	ldr.w	sl, [r3, #16]
   107ec:	f8d3 9014 	ldr.w	r9, [r3, #20]
   107f0:	440a      	add	r2, r1
   107f2:	463b      	mov	r3, r7
   107f4:	9201      	str	r2, [sp, #4]
   107f6:	bf38      	it	cc
   107f8:	2301      	movcc	r3, #1
   107fa:	9302      	str	r3, [sp, #8]
   107fc:	f10b 33ff 	add.w	r3, fp, #4294967295	@ 0xffffffff
   10800:	9304      	str	r3, [sp, #16]
   10802:	f1cb 0300 	rsb	r3, fp, #0
   10806:	9305      	str	r3, [sp, #20]
   10808:	f00a feec 	bl	1b5e4 <_dl_tls_static_surplus_init>
   1080c:	2f00      	cmp	r7, #0
   1080e:	d07a      	beq.n	10906 <__libc_setup_tls+0x16a>
   10810:	4639      	mov	r1, r7
   10812:	1df8      	adds	r0, r7, #7
   10814:	f035 f984 	bl	45b20 <__udivsi3>
   10818:	9b02      	ldr	r3, [sp, #8]
   1081a:	fb03 f800 	mul.w	r8, r3, r0
   1081e:	4643      	mov	r3, r8
   10820:	4a5c      	ldr	r2, [pc, #368]	@ (10994 <__libc_setup_tls+0x1f8>)
   10822:	464e      	mov	r6, r9
   10824:	9303      	str	r3, [sp, #12]
   10826:	447a      	add	r2, pc
   10828:	6810      	ldr	r0, [r2, #0]
   1082a:	f500 60a0 	add.w	r0, r0, #1280	@ 0x500
   1082e:	4458      	add	r0, fp
   10830:	4440      	add	r0, r8
   10832:	4448      	add	r0, r9
   10834:	f00b fcb2 	bl	1c19c <_dl_early_allocate>
   10838:	9b03      	ldr	r3, [sp, #12]
   1083a:	4604      	mov	r4, r0
   1083c:	2800      	cmp	r0, #0
   1083e:	d07d      	beq.n	1093c <__libc_setup_tls+0x1a0>
   10840:	f8c5 3254 	str.w	r3, [r5, #596]	@ 0x254
   10844:	f504 64a0 	add.w	r4, r4, #1280	@ 0x500
   10848:	9b04      	ldr	r3, [sp, #16]
   1084a:	4652      	mov	r2, sl
   1084c:	9901      	ldr	r1, [sp, #4]
   1084e:	f04f 0c3e 	mov.w	ip, #62	@ 0x3e
   10852:	441c      	add	r4, r3
   10854:	9b05      	ldr	r3, [sp, #20]
   10856:	401c      	ands	r4, r3
   10858:	4b4f      	ldr	r3, [pc, #316]	@ (10998 <__libc_setup_tls+0x1fc>)
   1085a:	eb04 0008 	add.w	r0, r4, r8
   1085e:	447b      	add	r3, pc
   10860:	9303      	str	r3, [sp, #12]
   10862:	f8c3 c004 	str.w	ip, [r3, #4]
   10866:	f04f 0c00 	mov.w	ip, #0
   1086a:	6158      	str	r0, [r3, #20]
   1086c:	f8c3 c018 	str.w	ip, [r3, #24]
   10870:	f7ff ec82 	blx	10178 <_init+0x10>
   10874:	9b03      	ldr	r3, [sp, #12]
   10876:	4620      	mov	r0, r4
   10878:	f04f 0c05 	mov.w	ip, #5
   1087c:	f2c0 0c0f 	movt	ip, #15
   10880:	330c      	adds	r3, #12
   10882:	6023      	str	r3, [r4, #0]
   10884:	f000 f89c 	bl	109c0 <__libc_do_syscall>
   10888:	f510 5f80 	cmn.w	r0, #4096	@ 0x1000
   1088c:	d848      	bhi.n	10920 <__libc_setup_tls+0x184>
   1088e:	f00b f933 	bl	1baf8 <__tls_init_tp>
   10892:	9b01      	ldr	r3, [sp, #4]
   10894:	e9c5 3a90 	strd	r3, sl, [r5, #576]	@ 0x240
   10898:	2201      	movs	r2, #1
   1089a:	4b40      	ldr	r3, [pc, #256]	@ (1099c <__libc_setup_tls+0x200>)
   1089c:	f8c5 2258 	str.w	r2, [r5, #600]	@ 0x258
   108a0:	447b      	add	r3, pc
   108a2:	e9c5 9792 	strd	r9, r7, [r5, #584]	@ 0x248
   108a6:	f8c3 240c 	str.w	r2, [r3, #1036]	@ 0x40c
   108aa:	2240      	movs	r2, #64	@ 0x40
   108ac:	f8c3 5218 	str.w	r5, [r3, #536]	@ 0x218
   108b0:	f8c3 2204 	str.w	r2, [r3, #516]	@ 0x204
   108b4:	f503 7201 	add.w	r2, r3, #516	@ 0x204
   108b8:	f8c3 2410 	str.w	r2, [r3, #1040]	@ 0x410
   108bc:	b117      	cbz	r7, 108c4 <__libc_setup_tls+0x128>
   108be:	3f01      	subs	r7, #1
   108c0:	eb09 0607 	add.w	r6, r9, r7
   108c4:	9902      	ldr	r1, [sp, #8]
   108c6:	4630      	mov	r0, r6
   108c8:	f035 fa58 	bl	45d7c <__aeabi_uidivmod>
   108cc:	4a34      	ldr	r2, [pc, #208]	@ (109a0 <__libc_setup_tls+0x204>)
   108ce:	1a76      	subs	r6, r6, r1
   108d0:	2101      	movs	r1, #1
   108d2:	447a      	add	r2, pc
   108d4:	4446      	add	r6, r8
   108d6:	6813      	ldr	r3, [r2, #0]
   108d8:	f8c2 b41c 	str.w	fp, [r2, #1052]	@ 0x41c
   108dc:	331f      	adds	r3, #31
   108de:	f8c2 6418 	str.w	r6, [r2, #1048]	@ 0x418
   108e2:	4433      	add	r3, r6
   108e4:	f8c2 1420 	str.w	r1, [r2, #1056]	@ 0x420
   108e8:	f023 031f 	bic.w	r3, r3, #31
   108ec:	f8c2 3414 	str.w	r3, [r2, #1044]	@ 0x414
   108f0:	b007      	add	sp, #28
   108f2:	e8bd 8ff0 	ldmia.w	sp!, {r4, r5, r6, r7, r8, r9, sl, fp, pc}
   108f6:	f04f 0a00 	mov.w	sl, #0
   108fa:	2000      	movs	r0, #0
   108fc:	46d1      	mov	r9, sl
   108fe:	f00a fe71 	bl	1b5e4 <_dl_tls_static_surplus_init>
   10902:	f8cd a004 	str.w	sl, [sp, #4]
   10906:	2308      	movs	r3, #8
   10908:	f06f 021f 	mvn.w	r2, #31
   1090c:	4698      	mov	r8, r3
   1090e:	9205      	str	r2, [sp, #20]
   10910:	f04f 0b20 	mov.w	fp, #32
   10914:	221f      	movs	r2, #31
   10916:	2700      	movs	r7, #0
   10918:	9204      	str	r2, [sp, #16]
   1091a:	2201      	movs	r2, #1
   1091c:	9202      	str	r2, [sp, #8]
   1091e:	e77f      	b.n	10820 <__libc_setup_tls+0x84>
   10920:	4920      	ldr	r1, [pc, #128]	@ (109a4 <__libc_setup_tls+0x208>)
   10922:	2002      	movs	r0, #2
   10924:	222d      	movs	r2, #45	@ 0x2d
   10926:	f04f 0c04 	mov.w	ip, #4
   1092a:	4479      	add	r1, pc
   1092c:	f000 f848 	bl	109c0 <__libc_do_syscall>
   10930:	207f      	movs	r0, #127	@ 0x7f
   10932:	f04f 0cf8 	mov.w	ip, #248	@ 0xf8
   10936:	f000 f843 	bl	109c0 <__libc_do_syscall>
   1093a:	e7a8      	b.n	1088e <__libc_setup_tls+0xf2>
   1093c:	491a      	ldr	r1, [pc, #104]	@ (109a8 <__libc_setup_tls+0x20c>)
   1093e:	2002      	movs	r0, #2
   10940:	222d      	movs	r2, #45	@ 0x2d
   10942:	f04f 0c04 	mov.w	ip, #4
   10946:	4479      	add	r1, pc
   10948:	f000 f83a 	bl	109c0 <__libc_do_syscall>
   1094c:	207f      	movs	r0, #127	@ 0x7f
   1094e:	f04f 0cf8 	mov.w	ip, #248	@ 0xf8
   10952:	f000 f835 	bl	109c0 <__libc_do_syscall>
   10956:	e773      	b.n	10840 <__libc_setup_tls+0xa4>
   10958:	2000      	movs	r0, #0
   1095a:	f04f 0a00 	mov.w	sl, #0
   1095e:	f00a fe41 	bl	1b5e4 <_dl_tls_static_surplus_init>
   10962:	2308      	movs	r3, #8
   10964:	f06f 021f 	mvn.w	r2, #31
   10968:	46d1      	mov	r9, sl
   1096a:	9205      	str	r2, [sp, #20]
   1096c:	4698      	mov	r8, r3
   1096e:	221f      	movs	r2, #31
   10970:	f04f 0b20 	mov.w	fp, #32
   10974:	9204      	str	r2, [sp, #16]
   10976:	4657      	mov	r7, sl
   10978:	2201      	movs	r2, #1
   1097a:	f8cd a004 	str.w	sl, [sp, #4]
   1097e:	9202      	str	r2, [sp, #8]
   10980:	e74e      	b.n	10820 <__libc_setup_tls+0x84>
   10982:	bf00      	nop
   10984:	00051856 	.word	0x00051856
   10988:	00000224 	.word	0x00000224
   1098c:	00000148 	.word	0x00000148
   10990:	000001cc 	.word	0x000001cc
   10994:	000527ea 	.word	0x000527ea
   10998:	000527b2 	.word	0x000527b2
   1099c:	00052770 	.word	0x00052770
   109a0:	0005273e 	.word	0x0005273e
   109a4:	00036b76 	.word	0x00036b76
   109a8:	00036b5a 	.word	0x00036b5a

000109ac <__tls_get_addr>:
   109ac:	ee1d 3f70 	mrc	15, 0, r3, cr13, cr0, {3}
   109b0:	681a      	ldr	r2, [r3, #0]
   109b2:	6843      	ldr	r3, [r0, #4]
   109b4:	6890      	ldr	r0, [r2, #8]
   109b6:	4418      	add	r0, r3
   109b8:	4770      	bx	lr
   109ba:	bf00      	nop
   109bc:	0000      	movs	r0, r0
	...

000109c0 <__libc_do_syscall>:
   109c0:	b580      	push	{r7, lr}
   109c2:	4667      	mov	r7, ip
   109c4:	df00      	svc	0
   109c6:	bd80      	pop	{r7, pc}
	...

000109d0 <_setjmp>:
   109d0:	f04f 0100 	mov.w	r1, #0
   109d4:	f016 bd5c 	b.w	27490 <__sigsetjmp>

000109d8 <__new_exitfn>:
   109d8:	4b26      	ldr	r3, [pc, #152]	@ (10a74 <__new_exitfn+0x9c>)
   109da:	b570      	push	{r4, r5, r6, lr}
   109dc:	4604      	mov	r4, r0
   109de:	447b      	add	r3, pc
   109e0:	7818      	ldrb	r0, [r3, #0]
   109e2:	2800      	cmp	r0, #0
   109e4:	d138      	bne.n	10a58 <__new_exitfn+0x80>
   109e6:	6825      	ldr	r5, [r4, #0]
   109e8:	462e      	mov	r6, r5
   109ea:	2d00      	cmp	r5, #0
   109ec:	d036      	beq.n	10a5c <__new_exitfn+0x84>
   109ee:	6873      	ldr	r3, [r6, #4]
   109f0:	eb06 1203 	add.w	r2, r6, r3, lsl #4
   109f4:	b143      	cbz	r3, 10a08 <__new_exitfn+0x30>
   109f6:	f852 1c08 	ldr.w	r1, [r2, #-8]
   109fa:	f103 3cff 	add.w	ip, r3, #4294967295	@ 0xffffffff
   109fe:	3a10      	subs	r2, #16
   10a00:	b941      	cbnz	r1, 10a14 <__new_exitfn+0x3c>
   10a02:	4663      	mov	r3, ip
   10a04:	2b00      	cmp	r3, #0
   10a06:	d1f6      	bne.n	109f6 <__new_exitfn+0x1e>
   10a08:	6832      	ldr	r2, [r6, #0]
   10a0a:	4630      	mov	r0, r6
   10a0c:	6073      	str	r3, [r6, #4]
   10a0e:	b1f2      	cbz	r2, 10a4e <__new_exitfn+0x76>
   10a10:	4616      	mov	r6, r2
   10a12:	e7ec      	b.n	109ee <__new_exitfn+0x16>
   10a14:	2b20      	cmp	r3, #32
   10a16:	d010      	beq.n	10a3a <__new_exitfn+0x62>
   10a18:	eb06 1003 	add.w	r0, r6, r3, lsl #4
   10a1c:	3301      	adds	r3, #1
   10a1e:	3008      	adds	r0, #8
   10a20:	6073      	str	r3, [r6, #4]
   10a22:	4a15      	ldr	r2, [pc, #84]	@ (10a78 <__new_exitfn+0xa0>)
   10a24:	2301      	movs	r3, #1
   10a26:	6003      	str	r3, [r0, #0]
   10a28:	447a      	add	r2, pc
   10a2a:	e9d2 3100 	ldrd	r3, r1, [r2]
   10a2e:	3301      	adds	r3, #1
   10a30:	6013      	str	r3, [r2, #0]
   10a32:	f141 0100 	adc.w	r1, r1, #0
   10a36:	6051      	str	r1, [r2, #4]
   10a38:	bd70      	pop	{r4, r5, r6, pc}
   10a3a:	b9c0      	cbnz	r0, 10a6e <__new_exitfn+0x96>
   10a3c:	f44f 7102 	mov.w	r1, #520	@ 0x208
   10a40:	2001      	movs	r0, #1
   10a42:	f007 fb2d 	bl	180a0 <__calloc>
   10a46:	4606      	mov	r6, r0
   10a48:	b130      	cbz	r0, 10a58 <__new_exitfn+0x80>
   10a4a:	6005      	str	r5, [r0, #0]
   10a4c:	6020      	str	r0, [r4, #0]
   10a4e:	2301      	movs	r3, #1
   10a50:	f106 0008 	add.w	r0, r6, #8
   10a54:	6073      	str	r3, [r6, #4]
   10a56:	e7e4      	b.n	10a22 <__new_exitfn+0x4a>
   10a58:	2000      	movs	r0, #0
   10a5a:	bd70      	pop	{r4, r5, r6, pc}
   10a5c:	4b07      	ldr	r3, [pc, #28]	@ (10a7c <__new_exitfn+0xa4>)
   10a5e:	226e      	movs	r2, #110	@ 0x6e
   10a60:	4907      	ldr	r1, [pc, #28]	@ (10a80 <__new_exitfn+0xa8>)
   10a62:	4808      	ldr	r0, [pc, #32]	@ (10a84 <__new_exitfn+0xac>)
   10a64:	447b      	add	r3, pc
   10a66:	4479      	add	r1, pc
   10a68:	4478      	add	r0, pc
   10a6a:	f013 fad7 	bl	2401c <__libc_assert_fail>
   10a6e:	4606      	mov	r6, r0
   10a70:	e7ed      	b.n	10a4e <__new_exitfn+0x76>
   10a72:	bf00      	nop
   10a74:	00052c8a 	.word	0x00052c8a
   10a78:	00052a2c 	.word	0x00052a2c
   10a7c:	00036a98 	.word	0x00036a98
   10a80:	00036a6a 	.word	0x00036a6a
   10a84:	00036a78 	.word	0x00036a78

00010a88 <__internal_atexit>:
   10a88:	b570      	push	{r4, r5, r6, lr}
   10a8a:	b082      	sub	sp, #8
   10a8c:	2800      	cmp	r0, #0
   10a8e:	d04a      	beq.n	10b26 <__internal_atexit+0x9e>
   10a90:	4604      	mov	r4, r0
   10a92:	482b      	ldr	r0, [pc, #172]	@ (10b40 <__internal_atexit+0xb8>)
   10a94:	4615      	mov	r5, r2
   10a96:	460e      	mov	r6, r1
   10a98:	4478      	add	r0, pc
   10a9a:	2201      	movs	r2, #1
   10a9c:	3008      	adds	r0, #8
   10a9e:	e850 1f00 	ldrex	r1, [r0]
   10aa2:	2900      	cmp	r1, #0
   10aa4:	d106      	bne.n	10ab4 <__internal_atexit+0x2c>
   10aa6:	e840 2c00 	strex	ip, r2, [r0]
   10aaa:	f1bc 0f00 	cmp.w	ip, #0
   10aae:	d1f6      	bne.n	10a9e <__internal_atexit+0x16>
   10ab0:	f3bf 8f5b 	dmb	ish
   10ab4:	d11e      	bne.n	10af4 <__internal_atexit+0x6c>
   10ab6:	4618      	mov	r0, r3
   10ab8:	f7ff ff8e 	bl	109d8 <__new_exitfn>
   10abc:	4603      	mov	r3, r0
   10abe:	b310      	cbz	r0, 10b06 <__internal_atexit+0x7e>
   10ac0:	4920      	ldr	r1, [pc, #128]	@ (10b44 <__internal_atexit+0xbc>)
   10ac2:	4a21      	ldr	r2, [pc, #132]	@ (10b48 <__internal_atexit+0xc0>)
   10ac4:	4479      	add	r1, pc
   10ac6:	6086      	str	r6, [r0, #8]
   10ac8:	447a      	add	r2, pc
   10aca:	2004      	movs	r0, #4
   10acc:	3208      	adds	r2, #8
   10ace:	60dd      	str	r5, [r3, #12]
   10ad0:	6809      	ldr	r1, [r1, #0]
   10ad2:	6018      	str	r0, [r3, #0]
   10ad4:	404c      	eors	r4, r1
   10ad6:	2100      	movs	r1, #0
   10ad8:	605c      	str	r4, [r3, #4]
   10ada:	f3bf 8f5b 	dmb	ish
   10ade:	e852 3f00 	ldrex	r3, [r2]
   10ae2:	e842 1000 	strex	r0, r1, [r2]
   10ae6:	2800      	cmp	r0, #0
   10ae8:	d1f9      	bne.n	10ade <__internal_atexit+0x56>
   10aea:	2b01      	cmp	r3, #1
   10aec:	dc07      	bgt.n	10afe <__internal_atexit+0x76>
   10aee:	2000      	movs	r0, #0
   10af0:	b002      	add	sp, #8
   10af2:	bd70      	pop	{r4, r5, r6, pc}
   10af4:	9301      	str	r3, [sp, #4]
   10af6:	f003 fa0f 	bl	13f18 <__lll_lock_wait_private>
   10afa:	9b01      	ldr	r3, [sp, #4]
   10afc:	e7db      	b.n	10ab6 <__internal_atexit+0x2e>
   10afe:	4610      	mov	r0, r2
   10b00:	f003 fa58 	bl	13fb4 <__lll_lock_wake_private>
   10b04:	e7f3      	b.n	10aee <__internal_atexit+0x66>
   10b06:	4811      	ldr	r0, [pc, #68]	@ (10b4c <__internal_atexit+0xc4>)
   10b08:	f3bf 8f5b 	dmb	ish
   10b0c:	4478      	add	r0, pc
   10b0e:	3008      	adds	r0, #8
   10b10:	e850 2f00 	ldrex	r2, [r0]
   10b14:	e840 3100 	strex	r1, r3, [r0]
   10b18:	2900      	cmp	r1, #0
   10b1a:	d1f9      	bne.n	10b10 <__internal_atexit+0x88>
   10b1c:	2a01      	cmp	r2, #1
   10b1e:	dc0b      	bgt.n	10b38 <__internal_atexit+0xb0>
   10b20:	f04f 30ff 	mov.w	r0, #4294967295	@ 0xffffffff
   10b24:	e7e4      	b.n	10af0 <__internal_atexit+0x68>
   10b26:	4b0a      	ldr	r3, [pc, #40]	@ (10b50 <__internal_atexit+0xc8>)
   10b28:	2229      	movs	r2, #41	@ 0x29
   10b2a:	490a      	ldr	r1, [pc, #40]	@ (10b54 <__internal_atexit+0xcc>)
   10b2c:	480a      	ldr	r0, [pc, #40]	@ (10b58 <__internal_atexit+0xd0>)
   10b2e:	447b      	add	r3, pc
   10b30:	4479      	add	r1, pc
   10b32:	4478      	add	r0, pc
   10b34:	f013 fa72 	bl	2401c <__libc_assert_fail>
   10b38:	f003 fa3c 	bl	13fb4 <__lll_lock_wake_private>
   10b3c:	e7f0      	b.n	10b20 <__internal_atexit+0x98>
   10b3e:	bf00      	nop
   10b40:	000529bc 	.word	0x000529bc
   10b44:	0005003c 	.word	0x0005003c
   10b48:	0005298c 	.word	0x0005298c
   10b4c:	00052948 	.word	0x00052948
   10b50:	000369de 	.word	0x000369de
   10b54:	000369a0 	.word	0x000369a0
   10b58:	000369ba 	.word	0x000369ba

00010b5c <__cxa_atexit>:
   10b5c:	4b01      	ldr	r3, [pc, #4]	@ (10b64 <__cxa_atexit+0x8>)
   10b5e:	447b      	add	r3, pc
   10b60:	e792      	b.n	10a88 <__internal_atexit>
   10b62:	bf00      	nop
   10b64:	000516ce 	.word	0x000516ce

00010b68 <__run_exit_handlers>:
   10b68:	e92d 4880 	stmdb	sp!, {r7, fp, lr}
   10b6c:	4692      	mov	sl, r2
   10b6e:	4f94      	ldr	r7, [pc, #592]	@ (10dc0 <__run_exit_handlers+0x258>)
   10b70:	4a94      	ldr	r2, [pc, #592]	@ (10dc4 <__run_exit_handlers+0x25c>)
   10b72:	b087      	sub	sp, #28
   10b74:	447f      	add	r7, pc
   10b76:	4680      	mov	r8, r0
   10b78:	9100      	str	r1, [sp, #0]
   10b7a:	58b9      	ldr	r1, [r7, r2]
   10b7c:	460a      	mov	r2, r1
   10b7e:	b109      	cbz	r1, 10b84 <__run_exit_handlers+0x1c>
   10b80:	f04f 0201 	mov.w	r2, #1
   10b84:	4213      	tst	r3, r2
   10b86:	f040 810c 	bne.w	10da2 <__run_exit_handlers+0x23a>
   10b8a:	4b8f      	ldr	r3, [pc, #572]	@ (10dc8 <__run_exit_handlers+0x260>)
   10b8c:	58fd      	ldr	r5, [r7, r3]
   10b8e:	2301      	movs	r3, #1
   10b90:	e855 2f00 	ldrex	r2, [r5]
   10b94:	2a00      	cmp	r2, #0
   10b96:	d105      	bne.n	10ba4 <__run_exit_handlers+0x3c>
   10b98:	e845 3100 	strex	r1, r3, [r5]
   10b9c:	2900      	cmp	r1, #0
   10b9e:	d1f7      	bne.n	10b90 <__run_exit_handlers+0x28>
   10ba0:	f3bf 8f5b 	dmb	ish
   10ba4:	f040 8107 	bne.w	10db6 <__run_exit_handlers+0x24e>
   10ba8:	9b00      	ldr	r3, [sp, #0]
   10baa:	681c      	ldr	r4, [r3, #0]
   10bac:	2c00      	cmp	r4, #0
   10bae:	d054      	beq.n	10c5a <__run_exit_handlers+0xf2>
   10bb0:	4e86      	ldr	r6, [pc, #536]	@ (10dcc <__run_exit_handlers+0x264>)
   10bb2:	f8df b21c 	ldr.w	fp, [pc, #540]	@ 10dd0 <__run_exit_handlers+0x268>
   10bb6:	f8df 921c 	ldr.w	r9, [pc, #540]	@ 10dd4 <__run_exit_handlers+0x26c>
   10bba:	447e      	add	r6, pc
   10bbc:	4b86      	ldr	r3, [pc, #536]	@ (10dd8 <__run_exit_handlers+0x270>)
   10bbe:	44fb      	add	fp, pc
   10bc0:	e9cd a703 	strd	sl, r7, [sp, #12]
   10bc4:	44f9      	add	r9, pc
   10bc6:	462f      	mov	r7, r5
   10bc8:	46b2      	mov	sl, r6
   10bca:	447b      	add	r3, pc
   10bcc:	9305      	str	r3, [sp, #20]
   10bce:	6861      	ldr	r1, [r4, #4]
   10bd0:	2900      	cmp	r1, #0
   10bd2:	f000 80a9 	beq.w	10d28 <__run_exit_handlers+0x1c0>
   10bd6:	3901      	subs	r1, #1
   10bd8:	f8da 5000 	ldr.w	r5, [sl]
   10bdc:	6061      	str	r1, [r4, #4]
   10bde:	eb04 1101 	add.w	r1, r4, r1, lsl #4
   10be2:	f8da 6004 	ldr.w	r6, [sl, #4]
   10be6:	6888      	ldr	r0, [r1, #8]
   10be8:	2803      	cmp	r0, #3
   10bea:	d07c      	beq.n	10ce6 <__run_exit_handlers+0x17e>
   10bec:	2804      	cmp	r0, #4
   10bee:	d052      	beq.n	10c96 <__run_exit_handlers+0x12e>
   10bf0:	2802      	cmp	r0, #2
   10bf2:	d1ec      	bne.n	10bce <__run_exit_handlers+0x66>
   10bf4:	4879      	ldr	r0, [pc, #484]	@ (10ddc <__run_exit_handlers+0x274>)
   10bf6:	f04f 0c00 	mov.w	ip, #0
   10bfa:	4478      	add	r0, pc
   10bfc:	6803      	ldr	r3, [r0, #0]
   10bfe:	68c8      	ldr	r0, [r1, #12]
   10c00:	6909      	ldr	r1, [r1, #16]
   10c02:	f3bf 8f5b 	dmb	ish
   10c06:	4043      	eors	r3, r0
   10c08:	e857 0f00 	ldrex	r0, [r7]
   10c0c:	e847 ce00 	strex	lr, ip, [r7]
   10c10:	f1be 0f00 	cmp.w	lr, #0
   10c14:	d1f8      	bne.n	10c08 <__run_exit_handlers+0xa0>
   10c16:	2801      	cmp	r0, #1
   10c18:	f300 80b9 	bgt.w	10d8e <__run_exit_handlers+0x226>
   10c1c:	4640      	mov	r0, r8
   10c1e:	4798      	blx	r3
   10c20:	2101      	movs	r1, #1
   10c22:	e857 0f00 	ldrex	r0, [r7]
   10c26:	2800      	cmp	r0, #0
   10c28:	d105      	bne.n	10c36 <__run_exit_handlers+0xce>
   10c2a:	e847 1300 	strex	r3, r1, [r7]
   10c2e:	2b00      	cmp	r3, #0
   10c30:	d1f7      	bne.n	10c22 <__run_exit_handlers+0xba>
   10c32:	f3bf 8f5b 	dmb	ish
   10c36:	f040 80a2 	bne.w	10d7e <__run_exit_handlers+0x216>
   10c3a:	4969      	ldr	r1, [pc, #420]	@ (10de0 <__run_exit_handlers+0x278>)
   10c3c:	4479      	add	r1, pc
   10c3e:	e9d1 0100 	ldrd	r0, r1, [r1]
   10c42:	42b1      	cmp	r1, r6
   10c44:	bf08      	it	eq
   10c46:	42a8      	cmpeq	r0, r5
   10c48:	d0c1      	beq.n	10bce <__run_exit_handlers+0x66>
   10c4a:	9b00      	ldr	r3, [sp, #0]
   10c4c:	681c      	ldr	r4, [r3, #0]
   10c4e:	2c00      	cmp	r4, #0
   10c50:	d1bd      	bne.n	10bce <__run_exit_handlers+0x66>
   10c52:	463d      	mov	r5, r7
   10c54:	f8dd a00c 	ldr.w	sl, [sp, #12]
   10c58:	9f04      	ldr	r7, [sp, #16]
   10c5a:	4b62      	ldr	r3, [pc, #392]	@ (10de4 <__run_exit_handlers+0x27c>)
   10c5c:	2200      	movs	r2, #0
   10c5e:	2101      	movs	r1, #1
   10c60:	447b      	add	r3, pc
   10c62:	7019      	strb	r1, [r3, #0]
   10c64:	f3bf 8f5b 	dmb	ish
   10c68:	e855 3f00 	ldrex	r3, [r5]
   10c6c:	e845 2100 	strex	r1, r2, [r5]
   10c70:	2900      	cmp	r1, #0
   10c72:	d1f9      	bne.n	10c68 <__run_exit_handlers+0x100>
   10c74:	2b01      	cmp	r3, #1
   10c76:	f300 809a 	bgt.w	10dae <__run_exit_handlers+0x246>
   10c7a:	4b5b      	ldr	r3, [pc, #364]	@ (10de8 <__run_exit_handlers+0x280>)
   10c7c:	f04f 0201 	mov.w	r2, #1
   10c80:	58fb      	ldr	r3, [r7, r3]
   10c82:	2b00      	cmp	r3, #0
   10c84:	f000 808b 	beq.w	10d9e <__run_exit_handlers+0x236>
   10c88:	ea1a 0f02 	tst.w	sl, r2
   10c8c:	f040 808c 	bne.w	10da8 <__run_exit_handlers+0x240>
   10c90:	4640      	mov	r0, r8
   10c92:	f009 fa49 	bl	1a128 <_exit>
   10c96:	4855      	ldr	r0, [pc, #340]	@ (10dec <__run_exit_handlers+0x284>)
   10c98:	4478      	add	r0, pc
   10c9a:	6803      	ldr	r3, [r0, #0]
   10c9c:	68c8      	ldr	r0, [r1, #12]
   10c9e:	4043      	eors	r3, r0
   10ca0:	2000      	movs	r0, #0
   10ca2:	6088      	str	r0, [r1, #8]
   10ca4:	6909      	ldr	r1, [r1, #16]
   10ca6:	f3bf 8f5b 	dmb	ish
   10caa:	e857 cf00 	ldrex	ip, [r7]
   10cae:	e847 0e00 	strex	lr, r0, [r7]
   10cb2:	f1be 0f00 	cmp.w	lr, #0
   10cb6:	d1f8      	bne.n	10caa <__run_exit_handlers+0x142>
   10cb8:	f1bc 0f01 	cmp.w	ip, #1
   10cbc:	dc57      	bgt.n	10d6e <__run_exit_handlers+0x206>
   10cbe:	4608      	mov	r0, r1
   10cc0:	4641      	mov	r1, r8
   10cc2:	4798      	blx	r3
   10cc4:	2101      	movs	r1, #1
   10cc6:	e857 0f00 	ldrex	r0, [r7]
   10cca:	2800      	cmp	r0, #0
   10ccc:	d105      	bne.n	10cda <__run_exit_handlers+0x172>
   10cce:	e847 1300 	strex	r3, r1, [r7]
   10cd2:	2b00      	cmp	r3, #0
   10cd4:	d1f7      	bne.n	10cc6 <__run_exit_handlers+0x15e>
   10cd6:	f3bf 8f5b 	dmb	ish
   10cda:	d13a      	bne.n	10d52 <__run_exit_handlers+0x1ea>
   10cdc:	4944      	ldr	r1, [pc, #272]	@ (10df0 <__run_exit_handlers+0x288>)
   10cde:	4479      	add	r1, pc
   10ce0:	e9d1 0100 	ldrd	r0, r1, [r1]
   10ce4:	e7ad      	b.n	10c42 <__run_exit_handlers+0xda>
   10ce6:	68c9      	ldr	r1, [r1, #12]
   10ce8:	f04f 0c00 	mov.w	ip, #0
   10cec:	f8db 0000 	ldr.w	r0, [fp]
   10cf0:	f3bf 8f5b 	dmb	ish
   10cf4:	4041      	eors	r1, r0
   10cf6:	e857 0f00 	ldrex	r0, [r7]
   10cfa:	e847 ce00 	strex	lr, ip, [r7]
   10cfe:	f1be 0f00 	cmp.w	lr, #0
   10d02:	d1f8      	bne.n	10cf6 <__run_exit_handlers+0x18e>
   10d04:	2801      	cmp	r0, #1
   10d06:	dc2c      	bgt.n	10d62 <__run_exit_handlers+0x1fa>
   10d08:	4788      	blx	r1
   10d0a:	2101      	movs	r1, #1
   10d0c:	e857 0f00 	ldrex	r0, [r7]
   10d10:	2800      	cmp	r0, #0
   10d12:	d105      	bne.n	10d20 <__run_exit_handlers+0x1b8>
   10d14:	e847 1300 	strex	r3, r1, [r7]
   10d18:	2b00      	cmp	r3, #0
   10d1a:	d1f7      	bne.n	10d0c <__run_exit_handlers+0x1a4>
   10d1c:	f3bf 8f5b 	dmb	ish
   10d20:	d110      	bne.n	10d44 <__run_exit_handlers+0x1dc>
   10d22:	e9d9 0100 	ldrd	r0, r1, [r9]
   10d26:	e78c      	b.n	10c42 <__run_exit_handlers+0xda>
   10d28:	6821      	ldr	r1, [r4, #0]
   10d2a:	9b00      	ldr	r3, [sp, #0]
   10d2c:	6019      	str	r1, [r3, #0]
   10d2e:	2900      	cmp	r1, #0
   10d30:	d08f      	beq.n	10c52 <__run_exit_handlers+0xea>
   10d32:	4620      	mov	r0, r4
   10d34:	f006 fe3e 	bl	179b4 <__free>
   10d38:	9b00      	ldr	r3, [sp, #0]
   10d3a:	681c      	ldr	r4, [r3, #0]
   10d3c:	2c00      	cmp	r4, #0
   10d3e:	f47f af46 	bne.w	10bce <__run_exit_handlers+0x66>
   10d42:	e786      	b.n	10c52 <__run_exit_handlers+0xea>
   10d44:	4638      	mov	r0, r7
   10d46:	f003 f8e7 	bl	13f18 <__lll_lock_wait_private>
   10d4a:	9b05      	ldr	r3, [sp, #20]
   10d4c:	e9d3 0100 	ldrd	r0, r1, [r3]
   10d50:	e777      	b.n	10c42 <__run_exit_handlers+0xda>
   10d52:	4638      	mov	r0, r7
   10d54:	f003 f8e0 	bl	13f18 <__lll_lock_wait_private>
   10d58:	4926      	ldr	r1, [pc, #152]	@ (10df4 <__run_exit_handlers+0x28c>)
   10d5a:	4479      	add	r1, pc
   10d5c:	e9d1 0100 	ldrd	r0, r1, [r1]
   10d60:	e76f      	b.n	10c42 <__run_exit_handlers+0xda>
   10d62:	4638      	mov	r0, r7
   10d64:	9101      	str	r1, [sp, #4]
   10d66:	f003 f925 	bl	13fb4 <__lll_lock_wake_private>
   10d6a:	9901      	ldr	r1, [sp, #4]
   10d6c:	e7cc      	b.n	10d08 <__run_exit_handlers+0x1a0>
   10d6e:	4638      	mov	r0, r7
   10d70:	e9cd 1301 	strd	r1, r3, [sp, #4]
   10d74:	f003 f91e 	bl	13fb4 <__lll_lock_wake_private>
   10d78:	e9dd 1301 	ldrd	r1, r3, [sp, #4]
   10d7c:	e79f      	b.n	10cbe <__run_exit_handlers+0x156>
   10d7e:	4638      	mov	r0, r7
   10d80:	f003 f8ca 	bl	13f18 <__lll_lock_wait_private>
   10d84:	491c      	ldr	r1, [pc, #112]	@ (10df8 <__run_exit_handlers+0x290>)
   10d86:	4479      	add	r1, pc
   10d88:	e9d1 0100 	ldrd	r0, r1, [r1]
   10d8c:	e759      	b.n	10c42 <__run_exit_handlers+0xda>
   10d8e:	4638      	mov	r0, r7
   10d90:	e9cd 1301 	strd	r1, r3, [sp, #4]
   10d94:	f003 f90e 	bl	13fb4 <__lll_lock_wake_private>
   10d98:	e9dd 1301 	ldrd	r1, r3, [sp, #4]
   10d9c:	e73e      	b.n	10c1c <__run_exit_handlers+0xb4>
   10d9e:	461a      	mov	r2, r3
   10da0:	e772      	b.n	10c88 <__run_exit_handlers+0x120>
   10da2:	f3af 8000 	nop.w
   10da6:	e6f0      	b.n	10b8a <__run_exit_handlers+0x22>
   10da8:	f01e fa04 	bl	2f1b4 <_IO_cleanup>
   10dac:	e770      	b.n	10c90 <__run_exit_handlers+0x128>
   10dae:	4628      	mov	r0, r5
   10db0:	f003 f900 	bl	13fb4 <__lll_lock_wake_private>
   10db4:	e761      	b.n	10c7a <__run_exit_handlers+0x112>
   10db6:	4628      	mov	r0, r5
   10db8:	f003 f8ae 	bl	13f18 <__lll_lock_wait_private>
   10dbc:	e6f4      	b.n	10ba8 <__run_exit_handlers+0x40>
   10dbe:	bf00      	nop
   10dc0:	00051488 	.word	0x00051488
   10dc4:	000001fc 	.word	0x000001fc
   10dc8:	000000b4 	.word	0x000000b4
   10dcc:	0005289a 	.word	0x0005289a
   10dd0:	0004ff42 	.word	0x0004ff42
   10dd4:	00052890 	.word	0x00052890
   10dd8:	0005288a 	.word	0x0005288a
   10ddc:	0004ff06 	.word	0x0004ff06
   10de0:	00052818 	.word	0x00052818
   10de4:	00052a08 	.word	0x00052a08
   10de8:	00000100 	.word	0x00000100
   10dec:	0004fe68 	.word	0x0004fe68
   10df0:	00052776 	.word	0x00052776
   10df4:	000526fa 	.word	0x000526fa
   10df8:	000526ce 	.word	0x000526ce

00010dfc <exit>:
   10dfc:	4903      	ldr	r1, [pc, #12]	@ (10e0c <exit+0x10>)
   10dfe:	b508      	push	{r3, lr}
   10e00:	2301      	movs	r3, #1
   10e02:	4479      	add	r1, pc
   10e04:	461a      	mov	r2, r3
   10e06:	f7ff feaf 	bl	10b68 <__run_exit_handlers>
   10e0a:	bf00      	nop
   10e0c:	0005142a 	.word	0x0005142a

00010e10 <_IO_printf>:
   10e10:	b40f      	push	{r0, r1, r2, r3}
   10e12:	4914      	ldr	r1, [pc, #80]	@ (10e64 <_IO_printf+0x54>)
   10e14:	b500      	push	{lr}
   10e16:	4b14      	ldr	r3, [pc, #80]	@ (10e68 <_IO_printf+0x58>)
   10e18:	4479      	add	r1, pc
   10e1a:	b083      	sub	sp, #12
   10e1c:	aa04      	add	r2, sp, #16
   10e1e:	4813      	ldr	r0, [pc, #76]	@ (10e6c <_IO_printf+0x5c>)
   10e20:	f8df c04c 	ldr.w	ip, [pc, #76]	@ 10e70 <_IO_printf+0x60>
   10e24:	58cb      	ldr	r3, [r1, r3]
   10e26:	4478      	add	r0, pc
   10e28:	f852 1b04 	ldr.w	r1, [r2], #4
   10e2c:	681b      	ldr	r3, [r3, #0]
   10e2e:	9301      	str	r3, [sp, #4]
   10e30:	f04f 0300 	mov.w	r3, #0
   10e34:	9200      	str	r2, [sp, #0]
   10e36:	2300      	movs	r3, #0
   10e38:	f850 000c 	ldr.w	r0, [r0, ip]
   10e3c:	6800      	ldr	r0, [r0, #0]
   10e3e:	f002 fb79 	bl	13534 <__vfprintf_internal>
   10e42:	4a0c      	ldr	r2, [pc, #48]	@ (10e74 <_IO_printf+0x64>)
   10e44:	4b08      	ldr	r3, [pc, #32]	@ (10e68 <_IO_printf+0x58>)
   10e46:	447a      	add	r2, pc
   10e48:	58d3      	ldr	r3, [r2, r3]
   10e4a:	681a      	ldr	r2, [r3, #0]
   10e4c:	9b01      	ldr	r3, [sp, #4]
   10e4e:	405a      	eors	r2, r3
   10e50:	f04f 0300 	mov.w	r3, #0
   10e54:	d104      	bne.n	10e60 <_IO_printf+0x50>
   10e56:	b003      	add	sp, #12
   10e58:	f85d eb04 	ldr.w	lr, [sp], #4
   10e5c:	b004      	add	sp, #16
   10e5e:	4770      	bx	lr
   10e60:	f00a fa3e 	bl	1b2e0 <__stack_chk_fail>
   10e64:	000511e4 	.word	0x000511e4
   10e68:	00000040 	.word	0x00000040
   10e6c:	000511d6 	.word	0x000511d6
   10e70:	0000002c 	.word	0x0000002c
   10e74:	000511b6 	.word	0x000511b6

00010e78 <read_int>:
   10e78:	b570      	push	{r4, r5, r6, lr}
   10e7a:	4601      	mov	r1, r0
   10e7c:	6804      	ldr	r4, [r0, #0]
   10e7e:	4622      	mov	r2, r4
   10e80:	f812 3b01 	ldrb.w	r3, [r2], #1
   10e84:	6002      	str	r2, [r0, #0]
   10e86:	f1a3 0030 	sub.w	r0, r3, #48	@ 0x30
   10e8a:	7863      	ldrb	r3, [r4, #1]
   10e8c:	3b30      	subs	r3, #48	@ 0x30
   10e8e:	2b09      	cmp	r3, #9
   10e90:	d81a      	bhi.n	10ec8 <read_int+0x50>
   10e92:	f64c 44cc 	movw	r4, #52428	@ 0xcccc
   10e96:	f6c0 44cc 	movt	r4, #3276	@ 0xccc
   10e9a:	260a      	movs	r6, #10
   10e9c:	f06f 4500 	mvn.w	r5, #2147483648	@ 0x80000000
   10ea0:	2800      	cmp	r0, #0
   10ea2:	db0b      	blt.n	10ebc <read_int+0x44>
   10ea4:	fb06 fc00 	mul.w	ip, r6, r0
   10ea8:	42a0      	cmp	r0, r4
   10eaa:	eba5 0e03 	sub.w	lr, r5, r3
   10eae:	f04f 30ff 	mov.w	r0, #4294967295	@ 0xffffffff
   10eb2:	dc03      	bgt.n	10ebc <read_int+0x44>
   10eb4:	45f4      	cmp	ip, lr
   10eb6:	bfd8      	it	le
   10eb8:	eb03 000c 	addle.w	r0, r3, ip
   10ebc:	3201      	adds	r2, #1
   10ebe:	600a      	str	r2, [r1, #0]
   10ec0:	7813      	ldrb	r3, [r2, #0]
   10ec2:	3b30      	subs	r3, #48	@ 0x30
   10ec4:	2b09      	cmp	r3, #9
   10ec6:	d9eb      	bls.n	10ea0 <read_int+0x28>
   10ec8:	bd70      	pop	{r4, r5, r6, pc}
   10eca:	bf00      	nop

00010ecc <outstring_converted_wide_string>:
   10ecc:	e92d 4ff0 	stmdb	sp!, {r4, r5, r6, r7, r8, r9, sl, fp, lr}
   10ed0:	4616      	mov	r6, r2
   10ed2:	4a58      	ldr	r2, [pc, #352]	@ (11034 <outstring_converted_wide_string+0x168>)
   10ed4:	b0c9      	sub	sp, #292	@ 0x124
   10ed6:	2b00      	cmp	r3, #0
   10ed8:	447a      	add	r2, pc
   10eda:	ac03      	add	r4, sp, #12
   10edc:	4607      	mov	r7, r0
   10ede:	f10d 0914 	add.w	r9, sp, #20
   10ee2:	9300      	str	r3, [sp, #0]
   10ee4:	4b54      	ldr	r3, [pc, #336]	@ (11038 <outstring_converted_wide_string+0x16c>)
   10ee6:	6021      	str	r1, [r4, #0]
   10ee8:	58d3      	ldr	r3, [r2, r3]
   10eea:	bfcc      	ite	gt
   10eec:	2201      	movgt	r2, #1
   10eee:	2200      	movle	r2, #0
   10ef0:	681b      	ldr	r3, [r3, #0]
   10ef2:	9347      	str	r3, [sp, #284]	@ 0x11c
   10ef4:	f04f 0300 	mov.w	r3, #0
   10ef8:	f89d 3148 	ldrb.w	r3, [sp, #328]	@ 0x148
   10efc:	9302      	str	r3, [sp, #8]
   10efe:	f083 0301 	eor.w	r3, r3, #1
   10f02:	9201      	str	r2, [sp, #4]
   10f04:	f003 0301 	and.w	r3, r3, #1
   10f08:	bfd8      	it	le
   10f0a:	2300      	movle	r3, #0
   10f0c:	b3a3      	cbz	r3, 10f78 <outstring_converted_wide_string+0xac>
   10f0e:	f10d 0914 	add.w	r9, sp, #20
   10f12:	2200      	movs	r2, #0
   10f14:	f10d 0b10 	add.w	fp, sp, #16
   10f18:	4608      	mov	r0, r1
   10f1a:	4296      	cmp	r6, r2
   10f1c:	f8cb 1000 	str.w	r1, [fp]
   10f20:	e9c9 2200 	strd	r2, r2, [r9]
   10f24:	db1a      	blt.n	10f5c <outstring_converted_wide_string+0x90>
   10f26:	4635      	mov	r5, r6
   10f28:	bf1c      	itt	ne
   10f2a:	4690      	movne	r8, r2
   10f2c:	f10d 0a1c 	addne.w	sl, sp, #28
   10f30:	d077      	beq.n	11022 <outstring_converted_wide_string+0x156>
   10f32:	b1c8      	cbz	r0, 10f68 <outstring_converted_wide_string+0x9c>
   10f34:	f5b5 7f80 	cmp.w	r5, #256	@ 0x100
   10f38:	462a      	mov	r2, r5
   10f3a:	464b      	mov	r3, r9
   10f3c:	bf28      	it	cs
   10f3e:	f44f 7280 	movcs.w	r2, #256	@ 0x100
   10f42:	4659      	mov	r1, fp
   10f44:	4650      	mov	r0, sl
   10f46:	f008 ff29 	bl	19d9c <__wcsrtombs>
   10f4a:	1c42      	adds	r2, r0, #1
   10f4c:	d04d      	beq.n	10fea <outstring_converted_wide_string+0x11e>
   10f4e:	b158      	cbz	r0, 10f68 <outstring_converted_wide_string+0x9c>
   10f50:	4480      	add	r8, r0
   10f52:	1a2d      	subs	r5, r5, r0
   10f54:	d008      	beq.n	10f68 <outstring_converted_wide_string+0x9c>
   10f56:	f8db 0000 	ldr.w	r0, [fp]
   10f5a:	e7ea      	b.n	10f32 <outstring_converted_wide_string+0x66>
   10f5c:	4659      	mov	r1, fp
   10f5e:	464b      	mov	r3, r9
   10f60:	4610      	mov	r0, r2
   10f62:	f008 ff1b 	bl	19d9c <__wcsrtombs>
   10f66:	4680      	mov	r8, r0
   10f68:	9b00      	ldr	r3, [sp, #0]
   10f6a:	eba3 0208 	sub.w	r2, r3, r8
   10f6e:	2a00      	cmp	r2, #0
   10f70:	dc58      	bgt.n	11024 <outstring_converted_wide_string+0x158>
   10f72:	69ba      	ldr	r2, [r7, #24]
   10f74:	2a00      	cmp	r2, #0
   10f76:	d03a      	beq.n	10fee <outstring_converted_wide_string+0x122>
   10f78:	2200      	movs	r2, #0
   10f7a:	e9c9 2200 	strd	r2, r2, [r9]
   10f7e:	4296      	cmp	r6, r2
   10f80:	bfbc      	itt	lt
   10f82:	2501      	movlt	r5, #1
   10f84:	f04f 3bff 	movlt.w	fp, #4294967295	@ 0xffffffff
   10f88:	db03      	blt.n	10f92 <outstring_converted_wide_string+0xc6>
   10f8a:	46b3      	mov	fp, r6
   10f8c:	bf14      	ite	ne
   10f8e:	2501      	movne	r5, #1
   10f90:	4615      	moveq	r5, r2
   10f92:	6820      	ldr	r0, [r4, #0]
   10f94:	2800      	cmp	r0, #0
   10f96:	bf0c      	ite	eq
   10f98:	2500      	moveq	r5, #0
   10f9a:	f005 0501 	andne.w	r5, r5, #1
   10f9e:	b39d      	cbz	r5, 11008 <outstring_converted_wide_string+0x13c>
   10fa0:	2500      	movs	r5, #0
   10fa2:	f10d 081c 	add.w	r8, sp, #28
   10fa6:	46a2      	mov	sl, r4
   10fa8:	e011      	b.n	10fce <outstring_converted_wide_string+0x102>
   10faa:	b368      	cbz	r0, 11008 <outstring_converted_wide_string+0x13c>
   10fac:	4602      	mov	r2, r0
   10fae:	4641      	mov	r1, r8
   10fb0:	4638      	mov	r0, r7
   10fb2:	4425      	add	r5, r4
   10fb4:	f018 f9f6 	bl	293a4 <__printf_buffer_write>
   10fb8:	2e00      	cmp	r6, #0
   10fba:	f8da 3000 	ldr.w	r3, [sl]
   10fbe:	bfa8      	it	ge
   10fc0:	ebab 0b04 	subge.w	fp, fp, r4
   10fc4:	2b00      	cmp	r3, #0
   10fc6:	bf18      	it	ne
   10fc8:	f1bb 0f00 	cmpne.w	fp, #0
   10fcc:	d01c      	beq.n	11008 <outstring_converted_wide_string+0x13c>
   10fce:	f5bb 7f80 	cmp.w	fp, #256	@ 0x100
   10fd2:	464b      	mov	r3, r9
   10fd4:	465a      	mov	r2, fp
   10fd6:	4651      	mov	r1, sl
   10fd8:	bf28      	it	cs
   10fda:	f44f 7280 	movcs.w	r2, #256	@ 0x100
   10fde:	4640      	mov	r0, r8
   10fe0:	f008 fedc 	bl	19d9c <__wcsrtombs>
   10fe4:	4604      	mov	r4, r0
   10fe6:	1c43      	adds	r3, r0, #1
   10fe8:	d1df      	bne.n	10faa <outstring_converted_wide_string+0xde>
   10fea:	2300      	movs	r3, #0
   10fec:	61bb      	str	r3, [r7, #24]
   10fee:	4a13      	ldr	r2, [pc, #76]	@ (1103c <outstring_converted_wide_string+0x170>)
   10ff0:	4b11      	ldr	r3, [pc, #68]	@ (11038 <outstring_converted_wide_string+0x16c>)
   10ff2:	447a      	add	r2, pc
   10ff4:	58d3      	ldr	r3, [r2, r3]
   10ff6:	681a      	ldr	r2, [r3, #0]
   10ff8:	9b47      	ldr	r3, [sp, #284]	@ 0x11c
   10ffa:	405a      	eors	r2, r3
   10ffc:	f04f 0300 	mov.w	r3, #0
   11000:	d115      	bne.n	1102e <outstring_converted_wide_string+0x162>
   11002:	b049      	add	sp, #292	@ 0x124
   11004:	e8bd 8ff0 	ldmia.w	sp!, {r4, r5, r6, r7, r8, r9, sl, fp, pc}
   11008:	e9dd 3201 	ldrd	r3, r2, [sp, #4]
   1100c:	4213      	tst	r3, r2
   1100e:	d0ee      	beq.n	10fee <outstring_converted_wide_string+0x122>
   11010:	9b00      	ldr	r3, [sp, #0]
   11012:	1b5a      	subs	r2, r3, r5
   11014:	2a00      	cmp	r2, #0
   11016:	ddea      	ble.n	10fee <outstring_converted_wide_string+0x122>
   11018:	2120      	movs	r1, #32
   1101a:	4638      	mov	r0, r7
   1101c:	f018 f89a 	bl	29154 <__printf_buffer_pad_1>
   11020:	e7e5      	b.n	10fee <outstring_converted_wide_string+0x122>
   11022:	9a00      	ldr	r2, [sp, #0]
   11024:	2120      	movs	r1, #32
   11026:	4638      	mov	r0, r7
   11028:	f018 f894 	bl	29154 <__printf_buffer_pad_1>
   1102c:	e7a1      	b.n	10f72 <outstring_converted_wide_string+0xa6>
   1102e:	f00a f957 	bl	1b2e0 <__stack_chk_fail>
   11032:	bf00      	nop
   11034:	00051124 	.word	0x00051124
   11038:	00000040 	.word	0x00000040
   1103c:	0005100a 	.word	0x0005100a

00011040 <group_number>:
   11040:	e92d 47f0 	stmdb	sp!, {r4, r5, r6, r7, r8, r9, sl, lr}
   11044:	461e      	mov	r6, r3
   11046:	f8dd a020 	ldr.w	sl, [sp, #32]
   1104a:	f89d 3024 	ldrb.w	r3, [sp, #36]	@ 0x24
   1104e:	4605      	mov	r5, r0
   11050:	460f      	mov	r7, r1
   11052:	4614      	mov	r4, r2
   11054:	b32b      	cbz	r3, 110a2 <group_number+0x62>
   11056:	42b2      	cmp	r2, r6
   11058:	d025      	beq.n	110a6 <group_number+0x66>
   1105a:	f8df 908c 	ldr.w	r9, [pc, #140]	@ 110e8 <group_number+0xa8>
   1105e:	ee1d 8f70 	mrc	15, 0, r8, cr13, cr0, {3}
   11062:	e014      	b.n	1108e <group_number+0x4e>
   11064:	464b      	mov	r3, r9
   11066:	f814 cb01 	ldrb.w	ip, [r4], #1
   1106a:	447b      	add	r3, pc
   1106c:	681b      	ldr	r3, [r3, #0]
   1106e:	4628      	mov	r0, r5
   11070:	f1ac 0c07 	sub.w	ip, ip, #7
   11074:	f858 3003 	ldr.w	r3, [r8, r3]
   11078:	fa1f fc8c 	uxth.w	ip, ip
   1107c:	f10c 0c08 	add.w	ip, ip, #8
   11080:	681b      	ldr	r3, [r3, #0]
   11082:	f853 102c 	ldr.w	r1, [r3, ip, lsl #2]
   11086:	f018 f8b5 	bl	291f4 <__printf_buffer_puts_1>
   1108a:	42a6      	cmp	r6, r4
   1108c:	d00b      	beq.n	110a6 <group_number+0x66>
   1108e:	4638      	mov	r0, r7
   11090:	f018 f80c 	bl	290ac <__grouping_iterator_next>
   11094:	2800      	cmp	r0, #0
   11096:	d0e5      	beq.n	11064 <group_number+0x24>
   11098:	4651      	mov	r1, sl
   1109a:	4628      	mov	r0, r5
   1109c:	f018 f8aa 	bl	291f4 <__printf_buffer_puts_1>
   110a0:	e7e0      	b.n	11064 <group_number+0x24>
   110a2:	42b2      	cmp	r2, r6
   110a4:	d110      	bne.n	110c8 <group_number+0x88>
   110a6:	e8bd 87f0 	ldmia.w	sp!, {r4, r5, r6, r7, r8, r9, sl, pc}
   110aa:	4651      	mov	r1, sl
   110ac:	4628      	mov	r0, r5
   110ae:	f018 f8a1 	bl	291f4 <__printf_buffer_puts_1>
   110b2:	f814 1b01 	ldrb.w	r1, [r4], #1
   110b6:	e9d5 3201 	ldrd	r3, r2, [r5, #4]
   110ba:	4293      	cmp	r3, r2
   110bc:	d00f      	beq.n	110de <group_number+0x9e>
   110be:	1c5a      	adds	r2, r3, #1
   110c0:	606a      	str	r2, [r5, #4]
   110c2:	7019      	strb	r1, [r3, #0]
   110c4:	42a6      	cmp	r6, r4
   110c6:	d0ee      	beq.n	110a6 <group_number+0x66>
   110c8:	4638      	mov	r0, r7
   110ca:	f017 ffef 	bl	290ac <__grouping_iterator_next>
   110ce:	2800      	cmp	r0, #0
   110d0:	d1eb      	bne.n	110aa <group_number+0x6a>
   110d2:	e9d5 3201 	ldrd	r3, r2, [r5, #4]
   110d6:	f814 1b01 	ldrb.w	r1, [r4], #1
   110da:	4293      	cmp	r3, r2
   110dc:	d1ef      	bne.n	110be <group_number+0x7e>
   110de:	4628      	mov	r0, r5
   110e0:	f018 f868 	bl	291b4 <__printf_buffer_putc_1>
   110e4:	e7ee      	b.n	110c4 <group_number+0x84>
   110e6:	bf00      	nop
   110e8:	0005109a 	.word	0x0005109a

000110ec <printf_positional>:
   110ec:	e92d 4ff0 	stmdb	sp!, {r4, r5, r6, r7, r8, r9, sl, fp, lr}
   110f0:	f8df 4544 	ldr.w	r4, [pc, #1348]	@ 11638 <printf_positional+0x54c>
   110f4:	f8df 3544 	ldr.w	r3, [pc, #1348]	@ 1163c <printf_positional+0x550>
   110f8:	f6ad 0dd4 	subw	sp, sp, #2260	@ 0x8d4
   110fc:	447c      	add	r4, pc
   110fe:	f10d 0888 	add.w	r8, sp, #136	@ 0x88
   11102:	f8dd 7900 	ldr.w	r7, [sp, #2304]	@ 0x900
   11106:	58e3      	ldr	r3, [r4, r3]
   11108:	681b      	ldr	r3, [r3, #0]
   1110a:	f8cd 38cc 	str.w	r3, [sp, #2252]	@ 0x8cc
   1110e:	f04f 0300 	mov.w	r3, #0
   11112:	f8dd 38f8 	ldr.w	r3, [sp, #2296]	@ 0x8f8
   11116:	9304      	str	r3, [sp, #16]
   11118:	f44f 6380 	mov.w	r3, #1024	@ 0x400
   1111c:	9218      	str	r2, [sp, #96]	@ 0x60
   1111e:	932b      	str	r3, [sp, #172]	@ 0xac
   11120:	f8dd 290c 	ldr.w	r2, [sp, #2316]	@ 0x90c
   11124:	f8cd 34b4 	str.w	r3, [sp, #1204]	@ 0x4b4
   11128:	ab2c      	add	r3, sp, #176	@ 0xb0
   1112a:	9305      	str	r3, [sp, #20]
   1112c:	3201      	adds	r2, #1
   1112e:	932a      	str	r3, [sp, #168]	@ 0xa8
   11130:	f50d 6397 	add.w	r3, sp, #1208	@ 0x4b8
   11134:	930d      	str	r3, [sp, #52]	@ 0x34
   11136:	f8cd 34b0 	str.w	r3, [sp, #1200]	@ 0x4b0
   1113a:	f04f 0300 	mov.w	r3, #0
   1113e:	f8c8 3000 	str.w	r3, [r8]
   11142:	f8dd 3904 	ldr.w	r3, [sp, #2308]	@ 0x904
   11146:	930b      	str	r3, [sp, #44]	@ 0x2c
   11148:	f8dd 3910 	ldr.w	r3, [sp, #2320]	@ 0x910
   1114c:	900c      	str	r0, [sp, #48]	@ 0x30
   1114e:	f50d 6096 	add.w	r0, sp, #1200	@ 0x4b0
   11152:	911b      	str	r1, [sp, #108]	@ 0x6c
   11154:	a92a      	add	r1, sp, #168	@ 0xa8
   11156:	9008      	str	r0, [sp, #32]
   11158:	9102      	str	r1, [sp, #8]
   1115a:	930e      	str	r3, [sp, #56]	@ 0x38
   1115c:	f000 8113 	beq.w	11386 <printf_positional+0x29a>
   11160:	783a      	ldrb	r2, [r7, #0]
   11162:	9d05      	ldr	r5, [sp, #20]
   11164:	4691      	mov	r9, r2
   11166:	4692      	mov	sl, r2
   11168:	2a00      	cmp	r2, #0
   1116a:	f000 808f 	beq.w	1128c <printf_positional+0x1a0>
   1116e:	f04f 0a00 	mov.w	sl, #0
   11172:	9d05      	ldr	r5, [sp, #20]
   11174:	46d3      	mov	fp, sl
   11176:	2413      	movs	r4, #19
   11178:	ae23      	add	r6, sp, #140	@ 0x8c
   1117a:	f04f 0934 	mov.w	r9, #52	@ 0x34
   1117e:	f64e 434f 	movw	r3, #60495	@ 0xec4f
   11182:	f6c4 63c4 	movt	r3, #20164	@ 0x4ec4
   11186:	9303      	str	r3, [sp, #12]
   11188:	4638      	mov	r0, r7
   1118a:	fb09 570a 	mla	r7, r9, sl, r5
   1118e:	4643      	mov	r3, r8
   11190:	4659      	mov	r1, fp
   11192:	463a      	mov	r2, r7
   11194:	9600      	str	r6, [sp, #0]
   11196:	f002 fae9 	bl	1376c <__parse_one_specmb>
   1119a:	7833      	ldrb	r3, [r6, #0]
   1119c:	4483      	add	fp, r0
   1119e:	2b00      	cmp	r3, #0
   111a0:	d14d      	bne.n	1123e <printf_positional+0x152>
   111a2:	69bf      	ldr	r7, [r7, #24]
   111a4:	f10a 0a01 	add.w	sl, sl, #1
   111a8:	783b      	ldrb	r3, [r7, #0]
   111aa:	2b00      	cmp	r3, #0
   111ac:	d068      	beq.n	11280 <printf_positional+0x194>
   111ae:	4554      	cmp	r4, sl
   111b0:	d1ea      	bne.n	11188 <printf_positional+0x9c>
   111b2:	9802      	ldr	r0, [sp, #8]
   111b4:	f007 fc3a 	bl	18a2c <__libc_scratch_buffer_grow_preserve>
   111b8:	2800      	cmp	r0, #0
   111ba:	d040      	beq.n	1123e <printf_positional+0x152>
   111bc:	9a02      	ldr	r2, [sp, #8]
   111be:	9b03      	ldr	r3, [sp, #12]
   111c0:	6854      	ldr	r4, [r2, #4]
   111c2:	6815      	ldr	r5, [r2, #0]
   111c4:	fba3 3404 	umull	r3, r4, r3, r4
   111c8:	0924      	lsrs	r4, r4, #4
   111ca:	e7dd      	b.n	11188 <printf_positional+0x9c>
   111cc:	f103 4380 	add.w	r3, r3, #1073741824	@ 0x40000000
   111d0:	3b08      	subs	r3, #8
   111d2:	f852 3023 	ldr.w	r3, [r2, r3, lsl #2]
   111d6:	2b00      	cmp	r3, #0
   111d8:	f000 820f 	beq.w	115fa <printf_positional+0x50e>
   111dc:	980f      	ldr	r0, [sp, #60]	@ 0x3c
   111de:	9a09      	ldr	r2, [sp, #36]	@ 0x24
   111e0:	5843      	ldr	r3, [r0, r1]
   111e2:	4408      	add	r0, r1
   111e4:	eb02 0c03 	add.w	ip, r2, r3
   111e8:	9a08      	ldr	r2, [sp, #32]
   111ea:	e9d2 3200 	ldrd	r3, r2, [r2]
   111ee:	4413      	add	r3, r2
   111f0:	459c      	cmp	ip, r3
   111f2:	f240 87ea 	bls.w	121ca <printf_positional+0x10de>
   111f6:	e9cd 5403 	strd	r5, r4, [sp, #12]
   111fa:	4688      	mov	r8, r1
   111fc:	9c10      	ldr	r4, [sp, #64]	@ 0x40
   111fe:	e9dd 5108 	ldrd	r5, r1, [sp, #32]
   11202:	e013      	b.n	1122c <printf_positional+0x140>
   11204:	e9d5 0300 	ldrd	r0, r3, [r5]
   11208:	eb04 020b 	add.w	r2, r4, fp
   1120c:	eb00 0c03 	add.w	ip, r0, r3
   11210:	9b0a      	ldr	r3, [sp, #40]	@ 0x28
   11212:	18c3      	adds	r3, r0, r3
   11214:	eb03 0b04 	add.w	fp, r3, r4
   11218:	eb03 0e08 	add.w	lr, r3, r8
   1121c:	eb0b 0102 	add.w	r1, fp, r2
   11220:	f853 2008 	ldr.w	r2, [r3, r8]
   11224:	440a      	add	r2, r1
   11226:	4562      	cmp	r2, ip
   11228:	f240 87c8 	bls.w	121bc <printf_positional+0x10d0>
   1122c:	eb0b 0204 	add.w	r2, fp, r4
   11230:	4628      	mov	r0, r5
   11232:	eba1 0b02 	sub.w	fp, r1, r2
   11236:	f007 fbf9 	bl	18a2c <__libc_scratch_buffer_grow_preserve>
   1123a:	2800      	cmp	r0, #0
   1123c:	d1e2      	bne.n	11204 <printf_positional+0x118>
   1123e:	9a0c      	ldr	r2, [sp, #48]	@ 0x30
   11240:	2300      	movs	r3, #0
   11242:	6193      	str	r3, [r2, #24]
   11244:	9b08      	ldr	r3, [sp, #32]
   11246:	6818      	ldr	r0, [r3, #0]
   11248:	9b0d      	ldr	r3, [sp, #52]	@ 0x34
   1124a:	4298      	cmp	r0, r3
   1124c:	d001      	beq.n	11252 <printf_positional+0x166>
   1124e:	f006 fbb1 	bl	179b4 <__free>
   11252:	9b02      	ldr	r3, [sp, #8]
   11254:	6818      	ldr	r0, [r3, #0]
   11256:	9b05      	ldr	r3, [sp, #20]
   11258:	4298      	cmp	r0, r3
   1125a:	d001      	beq.n	11260 <printf_positional+0x174>
   1125c:	f006 fbaa 	bl	179b4 <__free>
   11260:	4af7      	ldr	r2, [pc, #988]	@ (11640 <printf_positional+0x554>)
   11262:	4bf6      	ldr	r3, [pc, #984]	@ (1163c <printf_positional+0x550>)
   11264:	447a      	add	r2, pc
   11266:	58d3      	ldr	r3, [r2, r3]
   11268:	681a      	ldr	r2, [r3, #0]
   1126a:	f8dd 38cc 	ldr.w	r3, [sp, #2252]	@ 0x8cc
   1126e:	405a      	eors	r2, r3
   11270:	f04f 0300 	mov.w	r3, #0
   11274:	f040 87c0 	bne.w	121f8 <printf_positional+0x110c>
   11278:	f60d 0dd4 	addw	sp, sp, #2260	@ 0x8d4
   1127c:	e8bd 8ff0 	ldmia.w	sp!, {r4, r5, r6, r7, r8, r9, sl, fp, pc}
   11280:	f8d8 3000 	ldr.w	r3, [r8]
   11284:	46d9      	mov	r9, fp
   11286:	459b      	cmp	fp, r3
   11288:	bf38      	it	cc
   1128a:	4699      	movcc	r9, r3
   1128c:	9808      	ldr	r0, [sp, #32]
   1128e:	2210      	movs	r2, #16
   11290:	4649      	mov	r1, r9
   11292:	f007 fc03 	bl	18a9c <__libc_scratch_buffer_set_array_size>
   11296:	901e      	str	r0, [sp, #120]	@ 0x78
   11298:	2800      	cmp	r0, #0
   1129a:	d0d0      	beq.n	1123e <printf_positional+0x152>
   1129c:	9b08      	ldr	r3, [sp, #32]
   1129e:	ea4f 02c9 	mov.w	r2, r9, lsl #3
   112a2:	f8dd 0914 	ldr.w	r0, [sp, #2324]	@ 0x914
   112a6:	ea4f 0189 	mov.w	r1, r9, lsl #2
   112aa:	920a      	str	r2, [sp, #40]	@ 0x28
   112ac:	681b      	ldr	r3, [r3, #0]
   112ae:	f010 0002 	ands.w	r0, r0, #2
   112b2:	9110      	str	r1, [sp, #64]	@ 0x40
   112b4:	eb03 0702 	add.w	r7, r3, r2
   112b8:	9021      	str	r0, [sp, #132]	@ 0x84
   112ba:	eb07 0b01 	add.w	fp, r7, r1
   112be:	460a      	mov	r2, r1
   112c0:	4658      	mov	r0, fp
   112c2:	bf14      	ite	ne
   112c4:	21ff      	movne	r1, #255	@ 0xff
   112c6:	2100      	moveq	r1, #0
   112c8:	9303      	str	r3, [sp, #12]
   112ca:	970f      	str	r7, [sp, #60]	@ 0x3c
   112cc:	eb0b 0302 	add.w	r3, fp, r2
   112d0:	9309      	str	r3, [sp, #36]	@ 0x24
   112d2:	f007 ec5e 	blx	18b90 <memset>
   112d6:	f1ba 0f00 	cmp.w	sl, #0
   112da:	f000 85d4 	beq.w	11e86 <printf_positional+0xd9a>
   112de:	4bd9      	ldr	r3, [pc, #868]	@ (11644 <printf_positional+0x558>)
   112e0:	2600      	movs	r6, #0
   112e2:	e9cd 5906 	strd	r5, r9, [sp, #24]
   112e6:	462c      	mov	r4, r5
   112e8:	447b      	add	r3, pc
   112ea:	46b9      	mov	r9, r7
   112ec:	46b0      	mov	r8, r6
   112ee:	461f      	mov	r7, r3
   112f0:	e00b      	b.n	1130a <printf_positional+0x21e>
   112f2:	e9d4 3209 	ldrd	r3, r2, [r4, #36]	@ 0x24
   112f6:	f84b 2023 	str.w	r2, [fp, r3, lsl #2]
   112fa:	6a63      	ldr	r3, [r4, #36]	@ 0x24
   112fc:	6b22      	ldr	r2, [r4, #48]	@ 0x30
   112fe:	f849 2023 	str.w	r2, [r9, r3, lsl #2]
   11302:	3601      	adds	r6, #1
   11304:	3434      	adds	r4, #52	@ 0x34
   11306:	45b2      	cmp	sl, r6
   11308:	d01d      	beq.n	11346 <printf_positional+0x25a>
   1130a:	6a23      	ldr	r3, [r4, #32]
   1130c:	1c5a      	adds	r2, r3, #1
   1130e:	bf18      	it	ne
   11310:	f84b 8023 	strne.w	r8, [fp, r3, lsl #2]
   11314:	69e3      	ldr	r3, [r4, #28]
   11316:	1c5d      	adds	r5, r3, #1
   11318:	bf18      	it	ne
   1131a:	f84b 8023 	strne.w	r8, [fp, r3, lsl #2]
   1131e:	6ae1      	ldr	r1, [r4, #44]	@ 0x2c
   11320:	2900      	cmp	r1, #0
   11322:	d0ee      	beq.n	11302 <printf_positional+0x216>
   11324:	2901      	cmp	r1, #1
   11326:	d0e4      	beq.n	112f2 <printf_positional+0x206>
   11328:	6a62      	ldr	r2, [r4, #36]	@ 0x24
   1132a:	3601      	adds	r6, #1
   1132c:	68a0      	ldr	r0, [r4, #8]
   1132e:	683b      	ldr	r3, [r7, #0]
   11330:	0092      	lsls	r2, r2, #2
   11332:	f853 5020 	ldr.w	r5, [r3, r0, lsl #2]
   11336:	eb09 0302 	add.w	r3, r9, r2
   1133a:	4620      	mov	r0, r4
   1133c:	445a      	add	r2, fp
   1133e:	47a8      	blx	r5
   11340:	3434      	adds	r4, #52	@ 0x34
   11342:	45b2      	cmp	sl, r6
   11344:	d1e1      	bne.n	1130a <printf_positional+0x21e>
   11346:	e9dd 5906 	ldrd	r5, r9, [sp, #24]
   1134a:	f1b9 0f00 	cmp.w	r9, #0
   1134e:	d038      	beq.n	113c2 <printf_positional+0x2d6>
   11350:	2600      	movs	r6, #0
   11352:	e9dd 8703 	ldrd	r8, r7, [sp, #12]
   11356:	4634      	mov	r4, r6
   11358:	f85b 3024 	ldr.w	r3, [fp, r4, lsl #2]
   1135c:	00a1      	lsls	r1, r4, #2
   1135e:	eb0b 0201 	add.w	r2, fp, r1
   11362:	2b07      	cmp	r3, #7
   11364:	f300 8116 	bgt.w	11594 <printf_positional+0x4a8>
   11368:	1c58      	adds	r0, r3, #1
   1136a:	db1b      	blt.n	113a4 <printf_positional+0x2b8>
   1136c:	2b07      	cmp	r3, #7
   1136e:	f200 8745 	bhi.w	121fc <printf_positional+0x1110>
   11372:	e8df f013 	tbh	[pc, r3, lsl #1]
   11376:	001a      	.short	0x001a
   11378:	001a001a 	.word	0x001a001a
   1137c:	001a001a 	.word	0x001a001a
   11380:	0101001a 	.word	0x0101001a
   11384:	0101      	.short	0x0101
   11386:	4aab      	ldr	r2, [pc, #684]	@ (11634 <printf_positional+0x548>)
   11388:	ee1d 1f70 	mrc	15, 0, r1, cr13, cr0, {3}
   1138c:	447a      	add	r2, pc
   1138e:	6812      	ldr	r2, [r2, #0]
   11390:	588a      	ldr	r2, [r1, r2]
   11392:	6812      	ldr	r2, [r2, #0]
   11394:	6a53      	ldr	r3, [r2, #36]	@ 0x24
   11396:	930e      	str	r3, [sp, #56]	@ 0x38
   11398:	e6e2      	b.n	11160 <printf_positional+0x74>
   1139a:	f5a3 7200 	sub.w	r2, r3, #512	@ 0x200
   1139e:	f432 7200 	bics.w	r2, r2, #512	@ 0x200
   113a2:	d002      	beq.n	113aa <printf_positional+0x2be>
   113a4:	051a      	lsls	r2, r3, #20
   113a6:	f140 8122 	bpl.w	115ee <printf_positional+0x502>
   113aa:	683b      	ldr	r3, [r7, #0]
   113ac:	1d1a      	adds	r2, r3, #4
   113ae:	603a      	str	r2, [r7, #0]
   113b0:	681b      	ldr	r3, [r3, #0]
   113b2:	f848 3006 	str.w	r3, [r8, r6]
   113b6:	3401      	adds	r4, #1
   113b8:	3608      	adds	r6, #8
   113ba:	454c      	cmp	r4, r9
   113bc:	d3cc      	bcc.n	11358 <printf_positional+0x26c>
   113be:	f8cd 800c 	str.w	r8, [sp, #12]
   113c2:	f8dd 38fc 	ldr.w	r3, [sp, #2300]	@ 0x8fc
   113c6:	459a      	cmp	sl, r3
   113c8:	f67f af3c 	bls.w	11244 <printf_positional+0x158>
   113cc:	f8dd 28fc 	ldr.w	r2, [sp, #2300]	@ 0x8fc
   113d0:	2334      	movs	r3, #52	@ 0x34
   113d2:	f8dd b030 	ldr.w	fp, [sp, #48]	@ 0x30
   113d6:	f8cd a058 	str.w	sl, [sp, #88]	@ 0x58
   113da:	fb03 5802 	mla	r8, r3, r2, r5
   113de:	4b9a      	ldr	r3, [pc, #616]	@ (11648 <printf_positional+0x55c>)
   113e0:	447b      	add	r3, pc
   113e2:	9315      	str	r3, [sp, #84]	@ 0x54
   113e4:	4b99      	ldr	r3, [pc, #612]	@ (1164c <printf_positional+0x560>)
   113e6:	4644      	mov	r4, r8
   113e8:	447b      	add	r3, pc
   113ea:	9319      	str	r3, [sp, #100]	@ 0x64
   113ec:	4b98      	ldr	r3, [pc, #608]	@ (11650 <printf_positional+0x564>)
   113ee:	447b      	add	r3, pc
   113f0:	931a      	str	r3, [sp, #104]	@ 0x68
   113f2:	e01f      	b.n	11434 <printf_positional+0x348>
   113f4:	6a62      	ldr	r2, [r4, #36]	@ 0x24
   113f6:	4658      	mov	r0, fp
   113f8:	9b03      	ldr	r3, [sp, #12]
   113fa:	eb03 02c2 	add.w	r2, r3, r2, lsl #3
   113fe:	6ae3      	ldr	r3, [r4, #44]	@ 0x2c
   11400:	9400      	str	r4, [sp, #0]
   11402:	f019 ff31 	bl	2b268 <__printf_function_invoke>
   11406:	1c83      	adds	r3, r0, #2
   11408:	d05f      	beq.n	114ca <printf_positional+0x3de>
   1140a:	2800      	cmp	r0, #0
   1140c:	f6ff af17 	blt.w	1123e <printf_positional+0x152>
   11410:	e9d4 1205 	ldrd	r1, r2, [r4, #20]
   11414:	4658      	mov	r0, fp
   11416:	3434      	adds	r4, #52	@ 0x34
   11418:	1a52      	subs	r2, r2, r1
   1141a:	f017 ffc3 	bl	293a4 <__printf_buffer_write>
   1141e:	f8dd 38fc 	ldr.w	r3, [sp, #2300]	@ 0x8fc
   11422:	3301      	adds	r3, #1
   11424:	f8cd 38fc 	str.w	r3, [sp, #2300]	@ 0x8fc
   11428:	f8dd 28fc 	ldr.w	r2, [sp, #2300]	@ 0x8fc
   1142c:	9b16      	ldr	r3, [sp, #88]	@ 0x58
   1142e:	4293      	cmp	r3, r2
   11430:	f67f af08 	bls.w	11244 <printf_positional+0x158>
   11434:	f8db 3018 	ldr.w	r3, [fp, #24]
   11438:	2b00      	cmp	r3, #0
   1143a:	f43f af03 	beq.w	11244 <printf_positional+0x158>
   1143e:	7b23      	ldrb	r3, [r4, #12]
   11440:	7b62      	ldrb	r2, [r4, #13]
   11442:	6a21      	ldr	r1, [r4, #32]
   11444:	f003 0601 	and.w	r6, r3, #1
   11448:	6920      	ldr	r0, [r4, #16]
   1144a:	f3c3 1a80 	ubfx	sl, r3, #6, #1
   1144e:	7a25      	ldrb	r5, [r4, #8]
   11450:	ea4f 18d3 	mov.w	r8, r3, lsr #7
   11454:	900a      	str	r0, [sp, #40]	@ 0x28
   11456:	f3c3 00c0 	ubfx	r0, r3, #3, #1
   1145a:	e9d4 9700 	ldrd	r9, r7, [r4]
   1145e:	9006      	str	r0, [sp, #24]
   11460:	950f      	str	r5, [sp, #60]	@ 0x3c
   11462:	f3c3 1000 	ubfx	r0, r3, #4, #1
   11466:	9009      	str	r0, [sp, #36]	@ 0x24
   11468:	f3c3 1040 	ubfx	r0, r3, #5, #1
   1146c:	9007      	str	r0, [sp, #28]
   1146e:	f3c3 0040 	ubfx	r0, r3, #1, #1
   11472:	9012      	str	r0, [sp, #72]	@ 0x48
   11474:	f3c2 0040 	ubfx	r0, r2, #1, #1
   11478:	f3c2 02c0 	ubfx	r2, r2, #3, #1
   1147c:	9010      	str	r0, [sp, #64]	@ 0x40
   1147e:	9204      	str	r2, [sp, #16]
   11480:	1c48      	adds	r0, r1, #1
   11482:	f3c3 0280 	ubfx	r2, r3, #2, #1
   11486:	9213      	str	r2, [sp, #76]	@ 0x4c
   11488:	d00d      	beq.n	114a6 <printf_positional+0x3ba>
   1148a:	9a03      	ldr	r2, [sp, #12]
   1148c:	f852 7031 	ldr.w	r7, [r2, r1, lsl #3]
   11490:	2f00      	cmp	r7, #0
   11492:	bfaf      	iteee	ge
   11494:	6067      	strge	r7, [r4, #4]
   11496:	f043 0320 	orrlt.w	r3, r3, #32
   1149a:	427f      	neglt	r7, r7
   1149c:	7323      	strblt	r3, [r4, #12]
   1149e:	bfbe      	ittt	lt
   114a0:	2301      	movlt	r3, #1
   114a2:	6067      	strlt	r7, [r4, #4]
   114a4:	9307      	strlt	r3, [sp, #28]
   114a6:	69e3      	ldr	r3, [r4, #28]
   114a8:	1c5a      	adds	r2, r3, #1
   114aa:	bf1e      	ittt	ne
   114ac:	9a03      	ldrne	r2, [sp, #12]
   114ae:	f852 3033 	ldrne.w	r3, [r2, r3, lsl #3]
   114b2:	ea43 79e3 	orrne.w	r9, r3, r3, asr #31
   114b6:	9b15      	ldr	r3, [sp, #84]	@ 0x54
   114b8:	bf18      	it	ne
   114ba:	f8c4 9000 	strne.w	r9, [r4]
   114be:	681b      	ldr	r3, [r3, #0]
   114c0:	b11b      	cbz	r3, 114ca <printf_positional+0x3de>
   114c2:	f853 1025 	ldr.w	r1, [r3, r5, lsl #2]
   114c6:	2900      	cmp	r1, #0
   114c8:	d194      	bne.n	113f4 <printf_positional+0x308>
   114ca:	f1a5 0320 	sub.w	r3, r5, #32
   114ce:	2b5a      	cmp	r3, #90	@ 0x5a
   114d0:	f240 809a 	bls.w	11608 <printf_positional+0x51c>
   114d4:	e9db 3201 	ldrd	r3, r2, [fp, #4]
   114d8:	4293      	cmp	r3, r2
   114da:	f000 85bd 	beq.w	12058 <printf_positional+0xf6c>
   114de:	1c5a      	adds	r2, r3, #1
   114e0:	f8cb 2004 	str.w	r2, [fp, #4]
   114e4:	2225      	movs	r2, #37	@ 0x25
   114e6:	701a      	strb	r2, [r3, #0]
   114e8:	7b23      	ldrb	r3, [r4, #12]
   114ea:	0718      	lsls	r0, r3, #28
   114ec:	f100 845f 	bmi.w	11dae <printf_positional+0xcc2>
   114f0:	0619      	lsls	r1, r3, #24
   114f2:	f100 8537 	bmi.w	11f64 <printf_positional+0xe78>
   114f6:	065a      	lsls	r2, r3, #25
   114f8:	f100 844c 	bmi.w	11d94 <printf_positional+0xca8>
   114fc:	06df      	lsls	r7, r3, #27
   114fe:	f100 856b 	bmi.w	11fd8 <printf_positional+0xeec>
   11502:	069e      	lsls	r6, r3, #26
   11504:	f100 8505 	bmi.w	11f12 <printf_positional+0xe26>
   11508:	6921      	ldr	r1, [r4, #16]
   1150a:	2930      	cmp	r1, #48	@ 0x30
   1150c:	f000 8571 	beq.w	11ff2 <printf_positional+0xf06>
   11510:	7b63      	ldrb	r3, [r4, #13]
   11512:	071d      	lsls	r5, r3, #28
   11514:	f100 84d4 	bmi.w	11ec0 <printf_positional+0xdd4>
   11518:	6860      	ldr	r0, [r4, #4]
   1151a:	2800      	cmp	r0, #0
   1151c:	f040 84dc 	bne.w	11ed8 <printf_positional+0xdec>
   11520:	6823      	ldr	r3, [r4, #0]
   11522:	3301      	adds	r3, #1
   11524:	f000 846e 	beq.w	11e04 <printf_positional+0xd18>
   11528:	e9db 3201 	ldrd	r3, r2, [fp, #4]
   1152c:	4293      	cmp	r3, r2
   1152e:	f000 85d2 	beq.w	120d6 <printf_positional+0xfea>
   11532:	1c5a      	adds	r2, r3, #1
   11534:	f8cb 2004 	str.w	r2, [fp, #4]
   11538:	222e      	movs	r2, #46	@ 0x2e
   1153a:	701a      	strb	r2, [r3, #0]
   1153c:	f60d 05c8 	addw	r5, sp, #2248	@ 0x8c8
   11540:	6820      	ldr	r0, [r4, #0]
   11542:	2300      	movs	r3, #0
   11544:	220a      	movs	r2, #10
   11546:	4629      	mov	r1, r5
   11548:	f017 fb08 	bl	28b5c <_itoa_word>
   1154c:	4606      	mov	r6, r0
   1154e:	42a8      	cmp	r0, r5
   11550:	d308      	bcc.n	11564 <printf_positional+0x478>
   11552:	f000 bc57 	b.w	11e04 <printf_positional+0xd18>
   11556:	1c5a      	adds	r2, r3, #1
   11558:	f8cb 2004 	str.w	r2, [fp, #4]
   1155c:	7019      	strb	r1, [r3, #0]
   1155e:	42ae      	cmp	r6, r5
   11560:	f000 8450 	beq.w	11e04 <printf_positional+0xd18>
   11564:	e9db 3201 	ldrd	r3, r2, [fp, #4]
   11568:	f816 1b01 	ldrb.w	r1, [r6], #1
   1156c:	4293      	cmp	r3, r2
   1156e:	d1f2      	bne.n	11556 <printf_positional+0x46a>
   11570:	4658      	mov	r0, fp
   11572:	f017 fe1f 	bl	291b4 <__printf_buffer_putc_1>
   11576:	e7f2      	b.n	1155e <printf_positional+0x472>
   11578:	683b      	ldr	r3, [r7, #0]
   1157a:	eb08 0206 	add.w	r2, r8, r6
   1157e:	3307      	adds	r3, #7
   11580:	f023 0307 	bic.w	r3, r3, #7
   11584:	f103 0108 	add.w	r1, r3, #8
   11588:	6039      	str	r1, [r7, #0]
   1158a:	e9d3 0100 	ldrd	r0, r1, [r3]
   1158e:	e9c2 0100 	strd	r0, r1, [r2]
   11592:	e710      	b.n	113b6 <printf_positional+0x2ca>
   11594:	f240 1007 	movw	r0, #263	@ 0x107
   11598:	4283      	cmp	r3, r0
   1159a:	d014      	beq.n	115c6 <printf_positional+0x4da>
   1159c:	f5b3 7f84 	cmp.w	r3, #264	@ 0x108
   115a0:	f6bf aefb 	bge.w	1139a <printf_positional+0x2ae>
   115a4:	f5b3 7f80 	cmp.w	r3, #256	@ 0x100
   115a8:	d121      	bne.n	115ee <printf_positional+0x502>
   115aa:	683b      	ldr	r3, [r7, #0]
   115ac:	eb08 0206 	add.w	r2, r8, r6
   115b0:	3307      	adds	r3, #7
   115b2:	f023 0307 	bic.w	r3, r3, #7
   115b6:	f103 0108 	add.w	r1, r3, #8
   115ba:	6039      	str	r1, [r7, #0]
   115bc:	e9d3 0100 	ldrd	r0, r1, [r3]
   115c0:	e9c2 0100 	strd	r0, r1, [r2]
   115c4:	e6f7      	b.n	113b6 <printf_positional+0x2ca>
   115c6:	683b      	ldr	r3, [r7, #0]
   115c8:	eb08 0106 	add.w	r1, r8, r6
   115cc:	f8dd 0914 	ldr.w	r0, [sp, #2324]	@ 0x914
   115d0:	3307      	adds	r3, #7
   115d2:	f023 0307 	bic.w	r3, r3, #7
   115d6:	ecb3 7b02 	vldmia	r3!, {d7}
   115da:	603b      	str	r3, [r7, #0]
   115dc:	ed81 7b00 	vstr	d7, [r1]
   115e0:	07c1      	lsls	r1, r0, #31
   115e2:	bf42      	ittt	mi
   115e4:	6813      	ldrmi	r3, [r2, #0]
   115e6:	f423 7380 	bicmi.w	r3, r3, #256	@ 0x100
   115ea:	6013      	strmi	r3, [r2, #0]
   115ec:	e6e3      	b.n	113b6 <printf_positional+0x2ca>
   115ee:	4a19      	ldr	r2, [pc, #100]	@ (11654 <printf_positional+0x568>)
   115f0:	447a      	add	r2, pc
   115f2:	6812      	ldr	r2, [r2, #0]
   115f4:	2a00      	cmp	r2, #0
   115f6:	f47f ade9 	bne.w	111cc <printf_positional+0xe0>
   115fa:	eb08 0306 	add.w	r3, r8, r6
   115fe:	2200      	movs	r2, #0
   11600:	f848 2006 	str.w	r2, [r8, r6]
   11604:	605a      	str	r2, [r3, #4]
   11606:	e6d6      	b.n	113b6 <printf_positional+0x2ca>
   11608:	9b09      	ldr	r3, [sp, #36]	@ 0x24
   1160a:	9311      	str	r3, [sp, #68]	@ 0x44
   1160c:	f89d 3028 	ldrb.w	r3, [sp, #40]	@ 0x28
   11610:	9314      	str	r3, [sp, #80]	@ 0x50
   11612:	9b1a      	ldr	r3, [sp, #104]	@ 0x68
   11614:	9a19      	ldr	r2, [sp, #100]	@ 0x64
   11616:	442b      	add	r3, r5
   11618:	9609      	str	r6, [sp, #36]	@ 0x24
   1161a:	f813 3c20 	ldrb.w	r3, [r3, #-32]
   1161e:	f852 3023 	ldr.w	r3, [r2, r3, lsl #2]
   11622:	9a06      	ldr	r2, [sp, #24]
   11624:	9217      	str	r2, [sp, #92]	@ 0x5c
   11626:	f043 0301 	orr.w	r3, r3, #1
   1162a:	9a0b      	ldr	r2, [sp, #44]	@ 0x2c
   1162c:	f502 727a 	add.w	r2, r2, #1000	@ 0x3e8
   11630:	920a      	str	r2, [sp, #40]	@ 0x28
   11632:	4718      	bx	r3
   11634:	00050db0 	.word	0x00050db0
   11638:	00050f00 	.word	0x00050f00
   1163c:	00000040 	.word	0x00000040
   11640:	00050d98 	.word	0x00050d98
   11644:	000545b8 	.word	0x000545b8
   11648:	000544bc 	.word	0x000544bc
   1164c:	0004e9fc 	.word	0x0004e9fc
   11650:	0003c546 	.word	0x0003c546
   11654:	000542b8 	.word	0x000542b8
   11658:	6a63      	ldr	r3, [r4, #36]	@ 0x24
   1165a:	9a03      	ldr	r2, [sp, #12]
   1165c:	eb02 03c3 	add.w	r3, r2, r3, lsl #3
   11660:	9323      	str	r3, [sp, #140]	@ 0x8c
   11662:	f8dd 3914 	ldr.w	r3, [sp, #2324]	@ 0x914
   11666:	aa23      	add	r2, sp, #140	@ 0x8c
   11668:	921d      	str	r2, [sp, #116]	@ 0x74
   1166a:	07dd      	lsls	r5, r3, #31
   1166c:	f100 84cc 	bmi.w	12008 <printf_positional+0xf1c>
   11670:	7b63      	ldrb	r3, [r4, #13]
   11672:	ee1d 1f70 	mrc	15, 0, r1, cr13, cr0, {3}
   11676:	4aac      	ldr	r2, [pc, #688]	@ (11928 <printf_positional+0x83c>)
   11678:	4658      	mov	r0, fp
   1167a:	f023 0310 	bic.w	r3, r3, #16
   1167e:	7363      	strb	r3, [r4, #13]
   11680:	68a3      	ldr	r3, [r4, #8]
   11682:	447a      	add	r2, pc
   11684:	6812      	ldr	r2, [r2, #0]
   11686:	f023 0320 	bic.w	r3, r3, #32
   1168a:	2b41      	cmp	r3, #65	@ 0x41
   1168c:	9b1d      	ldr	r3, [sp, #116]	@ 0x74
   1168e:	5889      	ldr	r1, [r1, r2]
   11690:	4622      	mov	r2, r4
   11692:	f040 82a9 	bne.w	11be8 <printf_positional+0xafc>
   11696:	f019 fd7b 	bl	2b190 <__printf_fphex_l_buffer>
   1169a:	e6b9      	b.n	11410 <printf_positional+0x324>
   1169c:	9b13      	ldr	r3, [sp, #76]	@ 0x4c
   1169e:	2b00      	cmp	r3, #0
   116a0:	f000 8303 	beq.w	11caa <printf_positional+0xbbe>
   116a4:	aa28      	add	r2, sp, #160	@ 0xa0
   116a6:	2500      	movs	r5, #0
   116a8:	9903      	ldr	r1, [sp, #12]
   116aa:	f60d 08bc 	addw	r8, sp, #2236	@ 0x8bc
   116ae:	4640      	mov	r0, r8
   116b0:	e9c2 5500 	strd	r5, r5, [r2]
   116b4:	6a63      	ldr	r3, [r4, #36]	@ 0x24
   116b6:	f851 1033 	ldr.w	r1, [r1, r3, lsl #3]
   116ba:	f008 f973 	bl	199a4 <__wcrtomb>
   116be:	4606      	mov	r6, r0
   116c0:	1c43      	adds	r3, r0, #1
   116c2:	f000 8577 	beq.w	121b4 <printf_positional+0x10c8>
   116c6:	9b07      	ldr	r3, [sp, #28]
   116c8:	1a3f      	subs	r7, r7, r0
   116ca:	2b00      	cmp	r3, #0
   116cc:	f040 8310 	bne.w	11cf0 <printf_positional+0xc04>
   116d0:	2f00      	cmp	r7, #0
   116d2:	f300 843b 	bgt.w	11f4c <printf_positional+0xe60>
   116d6:	4602      	mov	r2, r0
   116d8:	4641      	mov	r1, r8
   116da:	4658      	mov	r0, fp
   116dc:	f017 fe62 	bl	293a4 <__printf_buffer_write>
   116e0:	e696      	b.n	11410 <printf_positional+0x324>
   116e2:	2310      	movs	r3, #16
   116e4:	9313      	str	r3, [sp, #76]	@ 0x4c
   116e6:	6a63      	ldr	r3, [r4, #36]	@ 0x24
   116e8:	9903      	ldr	r1, [sp, #12]
   116ea:	eb01 02c3 	add.w	r2, r1, r3, lsl #3
   116ee:	2e00      	cmp	r6, #0
   116f0:	f000 81c1 	beq.w	11a76 <printf_positional+0x98a>
   116f4:	f851 6033 	ldr.w	r6, [r1, r3, lsl #3]
   116f8:	f04f 0a00 	mov.w	sl, #0
   116fc:	9b04      	ldr	r3, [sp, #16]
   116fe:	6851      	ldr	r1, [r2, #4]
   11700:	9a13      	ldr	r2, [sp, #76]	@ 0x4c
   11702:	f8cd a044 	str.w	sl, [sp, #68]	@ 0x44
   11706:	2a0a      	cmp	r2, #10
   11708:	bf14      	ite	ne
   1170a:	2300      	movne	r3, #0
   1170c:	f003 0301 	andeq.w	r3, r3, #1
   11710:	f8cd a024 	str.w	sl, [sp, #36]	@ 0x24
   11714:	9304      	str	r3, [sp, #16]
   11716:	f1b9 0f00 	cmp.w	r9, #0
   1171a:	f2c0 839e 	blt.w	11e5a <printf_positional+0xd6e>
   1171e:	d103      	bne.n	11728 <printf_positional+0x63c>
   11720:	ea56 0301 	orrs.w	r3, r6, r1
   11724:	f000 8320 	beq.w	11d68 <printf_positional+0xc7c>
   11728:	2320      	movs	r3, #32
   1172a:	9314      	str	r3, [sp, #80]	@ 0x50
   1172c:	f1a5 0558 	sub.w	r5, r5, #88	@ 0x58
   11730:	9b13      	ldr	r3, [sp, #76]	@ 0x4c
   11732:	fab5 f585 	clz	r5, r5
   11736:	4630      	mov	r0, r6
   11738:	911c      	str	r1, [sp, #112]	@ 0x70
   1173a:	096d      	lsrs	r5, r5, #5
   1173c:	9500      	str	r5, [sp, #0]
   1173e:	9d0a      	ldr	r5, [sp, #40]	@ 0x28
   11740:	462a      	mov	r2, r5
   11742:	f017 fa55 	bl	28bf0 <_itoa>
   11746:	991c      	ldr	r1, [sp, #112]	@ 0x70
   11748:	1a2d      	subs	r5, r5, r0
   1174a:	9012      	str	r0, [sp, #72]	@ 0x48
   1174c:	9510      	str	r5, [sp, #64]	@ 0x40
   1174e:	ea56 0301 	orrs.w	r3, r6, r1
   11752:	9b06      	ldr	r3, [sp, #24]
   11754:	bf14      	ite	ne
   11756:	2601      	movne	r6, #1
   11758:	2600      	moveq	r6, #0
   1175a:	f003 0301 	and.w	r3, r3, #1
   1175e:	b2db      	uxtb	r3, r3
   11760:	931c      	str	r3, [sp, #112]	@ 0x70
   11762:	f1b8 0f00 	cmp.w	r8, #0
   11766:	f040 81d3 	bne.w	11b10 <printf_positional+0xa24>
   1176a:	9b04      	ldr	r3, [sp, #16]
   1176c:	9606      	str	r6, [sp, #24]
   1176e:	2b00      	cmp	r3, #0
   11770:	f000 8177 	beq.w	11a62 <printf_positional+0x976>
   11774:	9910      	ldr	r1, [sp, #64]	@ 0x40
   11776:	a823      	add	r0, sp, #140	@ 0x8c
   11778:	f017 fc44 	bl	29004 <__grouping_iterator_init_none>
   1177c:	4b6b      	ldr	r3, [pc, #428]	@ (1192c <printf_positional+0x840>)
   1177e:	ee1d 2f70 	mrc	15, 0, r2, cr13, cr0, {3}
   11782:	eba9 0605 	sub.w	r6, r9, r5
   11786:	447b      	add	r3, pc
   11788:	681b      	ldr	r3, [r3, #0]
   1178a:	9912      	ldr	r1, [sp, #72]	@ 0x48
   1178c:	58d0      	ldr	r0, [r2, r3]
   1178e:	9a0a      	ldr	r2, [sp, #40]	@ 0x28
   11790:	f019 ffe2 	bl	2b758 <__translated_number_width>
   11794:	f8dd 8010 	ldr.w	r8, [sp, #16]
   11798:	951f      	str	r5, [sp, #124]	@ 0x7c
   1179a:	ea26 73e6 	bic.w	r3, r6, r6, asr #31
   1179e:	4605      	mov	r5, r0
   117a0:	9010      	str	r0, [sp, #64]	@ 0x40
   117a2:	454d      	cmp	r5, r9
   117a4:	f2c0 80fe 	blt.w	119a4 <printf_positional+0x8b8>
   117a8:	9a06      	ldr	r2, [sp, #24]
   117aa:	2a00      	cmp	r2, #0
   117ac:	f000 81de 	beq.w	11b6c <printf_positional+0xa80>
   117b0:	9a13      	ldr	r2, [sp, #76]	@ 0x4c
   117b2:	9d17      	ldr	r5, [sp, #92]	@ 0x5c
   117b4:	2a08      	cmp	r2, #8
   117b6:	bf14      	ite	ne
   117b8:	2500      	movne	r5, #0
   117ba:	f005 0501 	andeq.w	r5, r5, #1
   117be:	9a07      	ldr	r2, [sp, #28]
   117c0:	2a00      	cmp	r2, #0
   117c2:	f040 80f4 	bne.w	119ae <printf_positional+0x8c2>
   117c6:	9a06      	ldr	r2, [sp, #24]
   117c8:	9e1c      	ldr	r6, [sp, #112]	@ 0x70
   117ca:	2a00      	cmp	r2, #0
   117cc:	bf0c      	ite	eq
   117ce:	2600      	moveq	r6, #0
   117d0:	f006 0601 	andne.w	r6, r6, #1
   117d4:	9a10      	ldr	r2, [sp, #64]	@ 0x40
   117d6:	441a      	add	r2, r3
   117d8:	1aba      	subs	r2, r7, r2
   117da:	2e00      	cmp	r6, #0
   117dc:	f040 80c9 	bne.w	11972 <printf_positional+0x886>
   117e0:	b105      	cbz	r5, 117e4 <printf_positional+0x6f8>
   117e2:	3a01      	subs	r2, #1
   117e4:	9909      	ldr	r1, [sp, #36]	@ 0x24
   117e6:	9811      	ldr	r0, [sp, #68]	@ 0x44
   117e8:	4301      	orrs	r1, r0
   117ea:	ea51 010a 	orrs.w	r1, r1, sl
   117ee:	f040 81d8 	bne.w	11ba2 <printf_positional+0xab6>
   117f2:	9914      	ldr	r1, [sp, #80]	@ 0x50
   117f4:	2920      	cmp	r1, #32
   117f6:	bf18      	it	ne
   117f8:	189b      	addne	r3, r3, r2
   117fa:	f000 8282 	beq.w	11d02 <printf_positional+0xc16>
   117fe:	2e00      	cmp	r6, #0
   11800:	f040 8236 	bne.w	11c70 <printf_positional+0xb84>
   11804:	2b00      	cmp	r3, #0
   11806:	f300 80ae 	bgt.w	11966 <printf_positional+0x87a>
   1180a:	2d00      	cmp	r5, #0
   1180c:	f040 8204 	bne.w	11c18 <printf_positional+0xb2c>
   11810:	9b04      	ldr	r3, [sp, #16]
   11812:	2b00      	cmp	r3, #0
   11814:	f000 81bf 	beq.w	11b96 <printf_positional+0xaaa>
   11818:	990e      	ldr	r1, [sp, #56]	@ 0x38
   1181a:	4658      	mov	r0, fp
   1181c:	9100      	str	r1, [sp, #0]
   1181e:	a923      	add	r1, sp, #140	@ 0x8c
   11820:	9b0a      	ldr	r3, [sp, #40]	@ 0x28
   11822:	9a12      	ldr	r2, [sp, #72]	@ 0x48
   11824:	f8cd 8004 	str.w	r8, [sp, #4]
   11828:	f7ff fc0a 	bl	11040 <group_number>
   1182c:	e5f0      	b.n	11410 <printf_positional+0x324>
   1182e:	2308      	movs	r3, #8
   11830:	9313      	str	r3, [sp, #76]	@ 0x4c
   11832:	e758      	b.n	116e6 <printf_positional+0x5fa>
   11834:	230a      	movs	r3, #10
   11836:	9313      	str	r3, [sp, #76]	@ 0x4c
   11838:	e755      	b.n	116e6 <printf_positional+0x5fa>
   1183a:	6a63      	ldr	r3, [r4, #36]	@ 0x24
   1183c:	2e00      	cmp	r6, #0
   1183e:	f040 827f 	bne.w	11d40 <printf_positional+0xc54>
   11842:	9810      	ldr	r0, [sp, #64]	@ 0x40
   11844:	9903      	ldr	r1, [sp, #12]
   11846:	eb01 02c3 	add.w	r2, r1, r3, lsl #3
   1184a:	2800      	cmp	r0, #0
   1184c:	f000 839d 	beq.w	11f8a <printf_positional+0xe9e>
   11850:	f911 3033 	ldrsb.w	r3, [r1, r3, lsl #3]
   11854:	ea83 76e3 	eor.w	r6, r3, r3, asr #31
   11858:	eba6 76e3 	sub.w	r6, r6, r3, asr #31
   1185c:	0fdb      	lsrs	r3, r3, #31
   1185e:	9606      	str	r6, [sp, #24]
   11860:	9309      	str	r3, [sp, #36]	@ 0x24
   11862:	230a      	movs	r3, #10
   11864:	9313      	str	r3, [sp, #76]	@ 0x4c
   11866:	e10f      	b.n	11a88 <printf_positional+0x99c>
   11868:	e9db 3201 	ldrd	r3, r2, [fp, #4]
   1186c:	4293      	cmp	r3, r2
   1186e:	f000 83e8 	beq.w	12042 <printf_positional+0xf56>
   11872:	1c5a      	adds	r2, r3, #1
   11874:	f8cb 2004 	str.w	r2, [fp, #4]
   11878:	2225      	movs	r2, #37	@ 0x25
   1187a:	701a      	strb	r2, [r3, #0]
   1187c:	e5c8      	b.n	11410 <printf_positional+0x324>
   1187e:	9b06      	ldr	r3, [sp, #24]
   11880:	2b00      	cmp	r3, #0
   11882:	f000 824d 	beq.w	11d20 <printf_positional+0xc34>
   11886:	f8dd 0908 	ldr.w	r0, [sp, #2312]	@ 0x908
   1188a:	f001 ff31 	bl	136f0 <__get_errname>
   1188e:	4606      	mov	r6, r0
   11890:	9b1e      	ldr	r3, [sp, #120]	@ 0x78
   11892:	2e00      	cmp	r6, #0
   11894:	f000 834e 	beq.w	11f34 <printf_positional+0xe48>
   11898:	2d53      	cmp	r5, #83	@ 0x53
   1189a:	bf0c      	ite	eq
   1189c:	2300      	moveq	r3, #0
   1189e:	f003 0301 	andne.w	r3, r3, #1
   118a2:	2b00      	cmp	r3, #0
   118a4:	f000 82f7 	beq.w	11e96 <printf_positional+0xdaa>
   118a8:	f1b9 3fff 	cmp.w	r9, #4294967295	@ 0xffffffff
   118ac:	f000 833d 	beq.w	11f2a <printf_positional+0xe3e>
   118b0:	4649      	mov	r1, r9
   118b2:	4630      	mov	r0, r6
   118b4:	f007 fa52 	bl	18d5c <__strnlen>
   118b8:	4605      	mov	r5, r0
   118ba:	1b7f      	subs	r7, r7, r5
   118bc:	d409      	bmi.n	118d2 <printf_positional+0x7e6>
   118be:	9b07      	ldr	r3, [sp, #28]
   118c0:	2b00      	cmp	r3, #0
   118c2:	f040 82cd 	bne.w	11e60 <printf_positional+0xd74>
   118c6:	b127      	cbz	r7, 118d2 <printf_positional+0x7e6>
   118c8:	463a      	mov	r2, r7
   118ca:	2120      	movs	r1, #32
   118cc:	4658      	mov	r0, fp
   118ce:	f017 fc41 	bl	29154 <__printf_buffer_pad_1>
   118d2:	462a      	mov	r2, r5
   118d4:	4631      	mov	r1, r6
   118d6:	4658      	mov	r0, fp
   118d8:	f017 fd64 	bl	293a4 <__printf_buffer_write>
   118dc:	e598      	b.n	11410 <printf_positional+0x324>
   118de:	9b21      	ldr	r3, [sp, #132]	@ 0x84
   118e0:	2b00      	cmp	r3, #0
   118e2:	d04f      	beq.n	11984 <printf_positional+0x898>
   118e4:	9b18      	ldr	r3, [sp, #96]	@ 0x60
   118e6:	2b00      	cmp	r3, #0
   118e8:	f000 836c 	beq.w	11fc4 <printf_positional+0xed8>
   118ec:	9b18      	ldr	r3, [sp, #96]	@ 0x60
   118ee:	2b00      	cmp	r3, #0
   118f0:	da48      	bge.n	11984 <printf_positional+0x898>
   118f2:	480f      	ldr	r0, [pc, #60]	@ (11930 <printf_positional+0x844>)
   118f4:	4478      	add	r0, pc
   118f6:	f002 fab3 	bl	13e60 <__libc_fatal>
   118fa:	6a63      	ldr	r3, [r4, #36]	@ 0x24
   118fc:	9a03      	ldr	r2, [sp, #12]
   118fe:	f852 3033 	ldr.w	r3, [r2, r3, lsl #3]
   11902:	2b00      	cmp	r3, #0
   11904:	f000 8260 	beq.w	11dc8 <printf_positional+0xcdc>
   11908:	f04f 0800 	mov.w	r8, #0
   1190c:	461e      	mov	r6, r3
   1190e:	9306      	str	r3, [sp, #24]
   11910:	2378      	movs	r3, #120	@ 0x78
   11912:	f8cd 8024 	str.w	r8, [sp, #36]	@ 0x24
   11916:	930f      	str	r3, [sp, #60]	@ 0x3c
   11918:	2301      	movs	r3, #1
   1191a:	9317      	str	r3, [sp, #92]	@ 0x5c
   1191c:	2310      	movs	r3, #16
   1191e:	9313      	str	r3, [sp, #76]	@ 0x4c
   11920:	e0b2      	b.n	11a88 <printf_positional+0x99c>
   11922:	2302      	movs	r3, #2
   11924:	9313      	str	r3, [sp, #76]	@ 0x4c
   11926:	e6de      	b.n	116e6 <printf_positional+0x5fa>
   11928:	00050b2e 	.word	0x00050b2e
   1192c:	00050a2a 	.word	0x00050a2a
   11930:	00035c90 	.word	0x00035c90
   11934:	6a63      	ldr	r3, [r4, #36]	@ 0x24
   11936:	9a03      	ldr	r2, [sp, #12]
   11938:	f852 6033 	ldr.w	r6, [r2, r3, lsl #3]
   1193c:	2e00      	cmp	r6, #0
   1193e:	f040 83df 	bne.w	12100 <printf_positional+0x1014>
   11942:	f1b9 0f05 	cmp.w	r9, #5
   11946:	bfd4      	ite	le
   11948:	2300      	movle	r3, #0
   1194a:	2301      	movgt	r3, #1
   1194c:	f1b9 3fff 	cmp.w	r9, #4294967295	@ 0xffffffff
   11950:	bf08      	it	eq
   11952:	f043 0301 	orreq.w	r3, r3, #1
   11956:	2b00      	cmp	r3, #0
   11958:	f000 8240 	beq.w	11ddc <printf_positional+0xcf0>
   1195c:	f8df 6498 	ldr.w	r6, [pc, #1176]	@ 11df8 <printf_positional+0xd0c>
   11960:	2506      	movs	r5, #6
   11962:	447e      	add	r6, pc
   11964:	e7a9      	b.n	118ba <printf_positional+0x7ce>
   11966:	461a      	mov	r2, r3
   11968:	2130      	movs	r1, #48	@ 0x30
   1196a:	4658      	mov	r0, fp
   1196c:	f017 fbf2 	bl	29154 <__printf_buffer_pad_1>
   11970:	e74b      	b.n	1180a <printf_positional+0x71e>
   11972:	9813      	ldr	r0, [sp, #76]	@ 0x4c
   11974:	2104      	movs	r1, #4
   11976:	f2c0 0101 	movt	r1, #1
   1197a:	40c1      	lsrs	r1, r0
   1197c:	07c8      	lsls	r0, r1, #31
   1197e:	bf48      	it	mi
   11980:	3a02      	submi	r2, #2
   11982:	e72d      	b.n	117e0 <printf_positional+0x6f4>
   11984:	6a63      	ldr	r3, [r4, #36]	@ 0x24
   11986:	4658      	mov	r0, fp
   11988:	9a03      	ldr	r2, [sp, #12]
   1198a:	f852 5033 	ldr.w	r5, [r2, r3, lsl #3]
   1198e:	f017 fbb5 	bl	290fc <__printf_buffer_done>
   11992:	2e00      	cmp	r6, #0
   11994:	f040 81bf 	bne.w	11d16 <printf_positional+0xc2a>
   11998:	9b10      	ldr	r3, [sp, #64]	@ 0x40
   1199a:	2b00      	cmp	r3, #0
   1199c:	f000 82ef 	beq.w	11f7e <printf_positional+0xe92>
   119a0:	7028      	strb	r0, [r5, #0]
   119a2:	e535      	b.n	11410 <printf_positional+0x324>
   119a4:	9a07      	ldr	r2, [sp, #28]
   119a6:	2500      	movs	r5, #0
   119a8:	2a00      	cmp	r2, #0
   119aa:	f43f af0c 	beq.w	117c6 <printf_positional+0x6da>
   119ae:	9a09      	ldr	r2, [sp, #36]	@ 0x24
   119b0:	2a00      	cmp	r2, #0
   119b2:	f040 8125 	bne.w	11c00 <printf_positional+0xb14>
   119b6:	f1ba 0f00 	cmp.w	sl, #0
   119ba:	f040 8233 	bne.w	11e24 <printf_positional+0xd38>
   119be:	9a11      	ldr	r2, [sp, #68]	@ 0x44
   119c0:	2a00      	cmp	r2, #0
   119c2:	f040 8272 	bne.w	11eaa <printf_positional+0xdbe>
   119c6:	9a1c      	ldr	r2, [sp, #112]	@ 0x70
   119c8:	9906      	ldr	r1, [sp, #24]
   119ca:	2900      	cmp	r1, #0
   119cc:	bf0c      	ite	eq
   119ce:	2200      	moveq	r2, #0
   119d0:	f002 0201 	andne.w	r2, r2, #1
   119d4:	2a00      	cmp	r2, #0
   119d6:	f040 812d 	bne.w	11c34 <printf_positional+0xb48>
   119da:	9a10      	ldr	r2, [sp, #64]	@ 0x40
   119dc:	441a      	add	r2, r3
   119de:	4691      	mov	r9, r2
   119e0:	2d00      	cmp	r5, #0
   119e2:	f000 80ce 	beq.w	11b82 <printf_positional+0xa96>
   119e6:	2e00      	cmp	r6, #0
   119e8:	dd04      	ble.n	119f4 <printf_positional+0x908>
   119ea:	461a      	mov	r2, r3
   119ec:	2130      	movs	r1, #48	@ 0x30
   119ee:	4658      	mov	r0, fp
   119f0:	f017 fbb0 	bl	29154 <__printf_buffer_pad_1>
   119f4:	e9db 3201 	ldrd	r3, r2, [fp, #4]
   119f8:	4293      	cmp	r3, r2
   119fa:	f000 8328 	beq.w	1204e <printf_positional+0xf62>
   119fe:	1c5a      	adds	r2, r3, #1
   11a00:	f8cb 2004 	str.w	r2, [fp, #4]
   11a04:	2230      	movs	r2, #48	@ 0x30
   11a06:	701a      	strb	r2, [r3, #0]
   11a08:	1e7d      	subs	r5, r7, #1
   11a0a:	eba5 0509 	sub.w	r5, r5, r9
   11a0e:	9b04      	ldr	r3, [sp, #16]
   11a10:	2b00      	cmp	r3, #0
   11a12:	f000 80a5 	beq.w	11b60 <printf_positional+0xa74>
   11a16:	990e      	ldr	r1, [sp, #56]	@ 0x38
   11a18:	4658      	mov	r0, fp
   11a1a:	9100      	str	r1, [sp, #0]
   11a1c:	a923      	add	r1, sp, #140	@ 0x8c
   11a1e:	9b0a      	ldr	r3, [sp, #40]	@ 0x28
   11a20:	9a12      	ldr	r2, [sp, #72]	@ 0x48
   11a22:	f8cd 8004 	str.w	r8, [sp, #4]
   11a26:	f7ff fb0b 	bl	11040 <group_number>
   11a2a:	2d00      	cmp	r5, #0
   11a2c:	f77f acf0 	ble.w	11410 <printf_positional+0x324>
   11a30:	462a      	mov	r2, r5
   11a32:	2120      	movs	r1, #32
   11a34:	4658      	mov	r0, fp
   11a36:	f017 fb8d 	bl	29154 <__printf_buffer_pad_1>
   11a3a:	e4e9      	b.n	11410 <printf_positional+0x324>
   11a3c:	9a0b      	ldr	r2, [sp, #44]	@ 0x2c
   11a3e:	2330      	movs	r3, #48	@ 0x30
   11a40:	f882 33e7 	strb.w	r3, [r2, #999]	@ 0x3e7
   11a44:	f202 33e7 	addw	r3, r2, #999	@ 0x3e7
   11a48:	9312      	str	r3, [sp, #72]	@ 0x48
   11a4a:	f1b8 0f00 	cmp.w	r8, #0
   11a4e:	f040 8328 	bne.w	120a2 <printf_positional+0xfb6>
   11a52:	2301      	movs	r3, #1
   11a54:	2220      	movs	r2, #32
   11a56:	461d      	mov	r5, r3
   11a58:	9310      	str	r3, [sp, #64]	@ 0x40
   11a5a:	9317      	str	r3, [sp, #92]	@ 0x5c
   11a5c:	2308      	movs	r3, #8
   11a5e:	9214      	str	r2, [sp, #80]	@ 0x50
   11a60:	9313      	str	r3, [sp, #76]	@ 0x4c
   11a62:	eba9 0605 	sub.w	r6, r9, r5
   11a66:	f04f 0800 	mov.w	r8, #0
   11a6a:	951f      	str	r5, [sp, #124]	@ 0x7c
   11a6c:	ea26 73e6 	bic.w	r3, r6, r6, asr #31
   11a70:	f8cd 8010 	str.w	r8, [sp, #16]
   11a74:	e695      	b.n	117a2 <printf_positional+0x6b6>
   11a76:	9b10      	ldr	r3, [sp, #64]	@ 0x40
   11a78:	2b00      	cmp	r3, #0
   11a7a:	f000 80b8 	beq.w	11bee <printf_positional+0xb02>
   11a7e:	7813      	ldrb	r3, [r2, #0]
   11a80:	46b2      	mov	sl, r6
   11a82:	9611      	str	r6, [sp, #68]	@ 0x44
   11a84:	461e      	mov	r6, r3
   11a86:	9306      	str	r3, [sp, #24]
   11a88:	f1b9 0f00 	cmp.w	r9, #0
   11a8c:	f2c0 80cf 	blt.w	11c2e <printf_positional+0xb42>
   11a90:	d11c      	bne.n	11acc <printf_positional+0x9e0>
   11a92:	9b06      	ldr	r3, [sp, #24]
   11a94:	b9d3      	cbnz	r3, 11acc <printf_positional+0x9e0>
   11a96:	9a17      	ldr	r2, [sp, #92]	@ 0x5c
   11a98:	9913      	ldr	r1, [sp, #76]	@ 0x4c
   11a9a:	f002 0301 	and.w	r3, r2, #1
   11a9e:	2908      	cmp	r1, #8
   11aa0:	bf14      	ite	ne
   11aa2:	2200      	movne	r2, #0
   11aa4:	f002 0201 	andeq.w	r2, r2, #1
   11aa8:	921c      	str	r2, [sp, #112]	@ 0x70
   11aaa:	2a00      	cmp	r2, #0
   11aac:	d1c6      	bne.n	11a3c <printf_positional+0x950>
   11aae:	9a04      	ldr	r2, [sp, #16]
   11ab0:	464d      	mov	r5, r9
   11ab2:	f8cd 9040 	str.w	r9, [sp, #64]	@ 0x40
   11ab6:	290a      	cmp	r1, #10
   11ab8:	bf14      	ite	ne
   11aba:	2200      	movne	r2, #0
   11abc:	f002 0201 	andeq.w	r2, r2, #1
   11ac0:	9204      	str	r2, [sp, #16]
   11ac2:	9a0a      	ldr	r2, [sp, #40]	@ 0x28
   11ac4:	9212      	str	r2, [sp, #72]	@ 0x48
   11ac6:	2220      	movs	r2, #32
   11ac8:	9214      	str	r2, [sp, #80]	@ 0x50
   11aca:	e648      	b.n	1175e <printf_positional+0x672>
   11acc:	2320      	movs	r3, #32
   11ace:	9314      	str	r3, [sp, #80]	@ 0x50
   11ad0:	9b0f      	ldr	r3, [sp, #60]	@ 0x3c
   11ad2:	9d0a      	ldr	r5, [sp, #40]	@ 0x28
   11ad4:	f1a3 0358 	sub.w	r3, r3, #88	@ 0x58
   11ad8:	9a13      	ldr	r2, [sp, #76]	@ 0x4c
   11ada:	fab3 f383 	clz	r3, r3
   11ade:	4629      	mov	r1, r5
   11ae0:	9806      	ldr	r0, [sp, #24]
   11ae2:	095b      	lsrs	r3, r3, #5
   11ae4:	f017 f83a 	bl	28b5c <_itoa_word>
   11ae8:	9b04      	ldr	r3, [sp, #16]
   11aea:	9a13      	ldr	r2, [sp, #76]	@ 0x4c
   11aec:	1a2d      	subs	r5, r5, r0
   11aee:	9012      	str	r0, [sp, #72]	@ 0x48
   11af0:	2a0a      	cmp	r2, #10
   11af2:	bf14      	ite	ne
   11af4:	2300      	movne	r3, #0
   11af6:	f003 0301 	andeq.w	r3, r3, #1
   11afa:	9304      	str	r3, [sp, #16]
   11afc:	9b17      	ldr	r3, [sp, #92]	@ 0x5c
   11afe:	9510      	str	r5, [sp, #64]	@ 0x40
   11b00:	f003 0301 	and.w	r3, r3, #1
   11b04:	b2db      	uxtb	r3, r3
   11b06:	931c      	str	r3, [sp, #112]	@ 0x70
   11b08:	f1b8 0f00 	cmp.w	r8, #0
   11b0c:	f43f ae2d 	beq.w	1176a <printf_positional+0x67e>
   11b10:	4bb8      	ldr	r3, [pc, #736]	@ (11df4 <printf_positional+0xd08>)
   11b12:	ee1d 8f70 	mrc	15, 0, r8, cr13, cr0, {3}
   11b16:	2101      	movs	r1, #1
   11b18:	447b      	add	r3, pc
   11b1a:	681b      	ldr	r3, [r3, #0]
   11b1c:	f858 2003 	ldr.w	r2, [r8, r3]
   11b20:	ab23      	add	r3, sp, #140	@ 0x8c
   11b22:	4618      	mov	r0, r3
   11b24:	931d      	str	r3, [sp, #116]	@ 0x74
   11b26:	9b10      	ldr	r3, [sp, #64]	@ 0x40
   11b28:	f017 fa76 	bl	29018 <__grouping_iterator_init>
   11b2c:	9a04      	ldr	r2, [sp, #16]
   11b2e:	9606      	str	r6, [sp, #24]
   11b30:	eba9 0605 	sub.w	r6, r9, r5
   11b34:	ea26 73e6 	bic.w	r3, r6, r6, asr #31
   11b38:	2a00      	cmp	r2, #0
   11b3a:	f040 817e 	bne.w	11e3a <printf_positional+0xd4e>
   11b3e:	f04f 0800 	mov.w	r8, #0
   11b42:	951f      	str	r5, [sp, #124]	@ 0x7c
   11b44:	980e      	ldr	r0, [sp, #56]	@ 0x38
   11b46:	9320      	str	r3, [sp, #128]	@ 0x80
   11b48:	f007 f89a 	bl	18c80 <strlen>
   11b4c:	9b1d      	ldr	r3, [sp, #116]	@ 0x74
   11b4e:	691a      	ldr	r2, [r3, #16]
   11b50:	9b10      	ldr	r3, [sp, #64]	@ 0x40
   11b52:	fb02 3500 	mla	r5, r2, r0, r3
   11b56:	9b1e      	ldr	r3, [sp, #120]	@ 0x78
   11b58:	9304      	str	r3, [sp, #16]
   11b5a:	9510      	str	r5, [sp, #64]	@ 0x40
   11b5c:	9b20      	ldr	r3, [sp, #128]	@ 0x80
   11b5e:	e620      	b.n	117a2 <printf_positional+0x6b6>
   11b60:	9a1f      	ldr	r2, [sp, #124]	@ 0x7c
   11b62:	4658      	mov	r0, fp
   11b64:	9912      	ldr	r1, [sp, #72]	@ 0x48
   11b66:	f017 fc1d 	bl	293a4 <__printf_buffer_write>
   11b6a:	e75e      	b.n	11a2a <printf_positional+0x93e>
   11b6c:	9a07      	ldr	r2, [sp, #28]
   11b6e:	9d06      	ldr	r5, [sp, #24]
   11b70:	2a00      	cmp	r2, #0
   11b72:	f47f af1c 	bne.w	119ae <printf_positional+0x8c2>
   11b76:	9a10      	ldr	r2, [sp, #64]	@ 0x40
   11b78:	9d07      	ldr	r5, [sp, #28]
   11b7a:	441a      	add	r2, r3
   11b7c:	1aba      	subs	r2, r7, r2
   11b7e:	462e      	mov	r6, r5
   11b80:	e630      	b.n	117e4 <printf_positional+0x6f8>
   11b82:	2e00      	cmp	r6, #0
   11b84:	dd04      	ble.n	11b90 <printf_positional+0xaa4>
   11b86:	461a      	mov	r2, r3
   11b88:	2130      	movs	r1, #48	@ 0x30
   11b8a:	4658      	mov	r0, fp
   11b8c:	f017 fae2 	bl	29154 <__printf_buffer_pad_1>
   11b90:	eba7 0509 	sub.w	r5, r7, r9
   11b94:	e73b      	b.n	11a0e <printf_positional+0x922>
   11b96:	9a1f      	ldr	r2, [sp, #124]	@ 0x7c
   11b98:	4658      	mov	r0, fp
   11b9a:	9912      	ldr	r1, [sp, #72]	@ 0x48
   11b9c:	f017 fc02 	bl	293a4 <__printf_buffer_write>
   11ba0:	e436      	b.n	11410 <printf_positional+0x324>
   11ba2:	9914      	ldr	r1, [sp, #80]	@ 0x50
   11ba4:	3a01      	subs	r2, #1
   11ba6:	2920      	cmp	r1, #32
   11ba8:	bf18      	it	ne
   11baa:	189b      	addne	r3, r3, r2
   11bac:	f000 8161 	beq.w	11e72 <printf_positional+0xd86>
   11bb0:	9a09      	ldr	r2, [sp, #36]	@ 0x24
   11bb2:	b972      	cbnz	r2, 11bd2 <printf_positional+0xae6>
   11bb4:	f1ba 0f00 	cmp.w	sl, #0
   11bb8:	f000 81f5 	beq.w	11fa6 <printf_positional+0xeba>
   11bbc:	e9db 2101 	ldrd	r2, r1, [fp, #4]
   11bc0:	428a      	cmp	r2, r1
   11bc2:	f000 810f 	beq.w	11de4 <printf_positional+0xcf8>
   11bc6:	1c51      	adds	r1, r2, #1
   11bc8:	f8cb 1004 	str.w	r1, [fp, #4]
   11bcc:	212b      	movs	r1, #43	@ 0x2b
   11bce:	7011      	strb	r1, [r2, #0]
   11bd0:	e615      	b.n	117fe <printf_positional+0x712>
   11bd2:	e9db 2101 	ldrd	r2, r1, [fp, #4]
   11bd6:	428a      	cmp	r2, r1
   11bd8:	f000 822b 	beq.w	12032 <printf_positional+0xf46>
   11bdc:	1c51      	adds	r1, r2, #1
   11bde:	f8cb 1004 	str.w	r1, [fp, #4]
   11be2:	212d      	movs	r1, #45	@ 0x2d
   11be4:	7011      	strb	r1, [r2, #0]
   11be6:	e60a      	b.n	117fe <printf_positional+0x712>
   11be8:	f018 fdf4 	bl	2a7d4 <__printf_fp_l_buffer>
   11bec:	e410      	b.n	11410 <printf_positional+0x324>
   11bee:	9b12      	ldr	r3, [sp, #72]	@ 0x48
   11bf0:	2b00      	cmp	r3, #0
   11bf2:	f040 809e 	bne.w	11d32 <printf_positional+0xc46>
   11bf6:	6816      	ldr	r6, [r2, #0]
   11bf8:	469a      	mov	sl, r3
   11bfa:	9606      	str	r6, [sp, #24]
   11bfc:	9311      	str	r3, [sp, #68]	@ 0x44
   11bfe:	e743      	b.n	11a88 <printf_positional+0x99c>
   11c00:	e9db 2101 	ldrd	r2, r1, [fp, #4]
   11c04:	428a      	cmp	r2, r1
   11c06:	f000 820d 	beq.w	12024 <printf_positional+0xf38>
   11c0a:	1c51      	adds	r1, r2, #1
   11c0c:	f8cb 1004 	str.w	r1, [fp, #4]
   11c10:	212d      	movs	r1, #45	@ 0x2d
   11c12:	7011      	strb	r1, [r2, #0]
   11c14:	3f01      	subs	r7, #1
   11c16:	e6d6      	b.n	119c6 <printf_positional+0x8da>
   11c18:	e9db 3201 	ldrd	r3, r2, [fp, #4]
   11c1c:	4293      	cmp	r3, r2
   11c1e:	f000 81fb 	beq.w	12018 <printf_positional+0xf2c>
   11c22:	1c5a      	adds	r2, r3, #1
   11c24:	f8cb 2004 	str.w	r2, [fp, #4]
   11c28:	2230      	movs	r2, #48	@ 0x30
   11c2a:	701a      	strb	r2, [r3, #0]
   11c2c:	e5f0      	b.n	11810 <printf_positional+0x724>
   11c2e:	f04f 0901 	mov.w	r9, #1
   11c32:	e74d      	b.n	11ad0 <printf_positional+0x9e4>
   11c34:	9913      	ldr	r1, [sp, #76]	@ 0x4c
   11c36:	2204      	movs	r2, #4
   11c38:	f2c0 0201 	movt	r2, #1
   11c3c:	40ca      	lsrs	r2, r1
   11c3e:	07d2      	lsls	r2, r2, #31
   11c40:	f57f aecb 	bpl.w	119da <printf_positional+0x8ee>
   11c44:	e9db 2101 	ldrd	r2, r1, [fp, #4]
   11c48:	428a      	cmp	r2, r1
   11c4a:	f000 8284 	beq.w	12156 <printf_positional+0x106a>
   11c4e:	1c51      	adds	r1, r2, #1
   11c50:	f8cb 1004 	str.w	r1, [fp, #4]
   11c54:	2130      	movs	r1, #48	@ 0x30
   11c56:	7011      	strb	r1, [r2, #0]
   11c58:	e9db 2101 	ldrd	r2, r1, [fp, #4]
   11c5c:	428a      	cmp	r2, r1
   11c5e:	f000 8273 	beq.w	12148 <printf_positional+0x105c>
   11c62:	1c51      	adds	r1, r2, #1
   11c64:	f8cb 1004 	str.w	r1, [fp, #4]
   11c68:	990f      	ldr	r1, [sp, #60]	@ 0x3c
   11c6a:	7011      	strb	r1, [r2, #0]
   11c6c:	3f02      	subs	r7, #2
   11c6e:	e6b4      	b.n	119da <printf_positional+0x8ee>
   11c70:	9913      	ldr	r1, [sp, #76]	@ 0x4c
   11c72:	2204      	movs	r2, #4
   11c74:	f2c0 0201 	movt	r2, #1
   11c78:	40ca      	lsrs	r2, r1
   11c7a:	07d1      	lsls	r1, r2, #31
   11c7c:	f57f adc2 	bpl.w	11804 <printf_positional+0x718>
   11c80:	e9db 2101 	ldrd	r2, r1, [fp, #4]
   11c84:	428a      	cmp	r2, r1
   11c86:	f000 828e 	beq.w	121a6 <printf_positional+0x10ba>
   11c8a:	1c51      	adds	r1, r2, #1
   11c8c:	f8cb 1004 	str.w	r1, [fp, #4]
   11c90:	2130      	movs	r1, #48	@ 0x30
   11c92:	7011      	strb	r1, [r2, #0]
   11c94:	e9db 2101 	ldrd	r2, r1, [fp, #4]
   11c98:	428a      	cmp	r2, r1
   11c9a:	f000 827c 	beq.w	12196 <printf_positional+0x10aa>
   11c9e:	1c51      	adds	r1, r2, #1
   11ca0:	f8cb 1004 	str.w	r1, [fp, #4]
   11ca4:	990f      	ldr	r1, [sp, #60]	@ 0x3c
   11ca6:	7011      	strb	r1, [r2, #0]
   11ca8:	e5ac      	b.n	11804 <printf_positional+0x718>
   11caa:	9b07      	ldr	r3, [sp, #28]
   11cac:	3f01      	subs	r7, #1
   11cae:	2f00      	cmp	r7, #0
   11cb0:	f083 0301 	eor.w	r3, r3, #1
   11cb4:	bfd4      	ite	le
   11cb6:	2500      	movle	r5, #0
   11cb8:	2501      	movgt	r5, #1
   11cba:	421d      	tst	r5, r3
   11cbc:	f040 81d2 	bne.w	12064 <printf_positional+0xf78>
   11cc0:	6a63      	ldr	r3, [r4, #36]	@ 0x24
   11cc2:	9a03      	ldr	r2, [sp, #12]
   11cc4:	f812 1033 	ldrb.w	r1, [r2, r3, lsl #3]
   11cc8:	e9db 3201 	ldrd	r3, r2, [fp, #4]
   11ccc:	4293      	cmp	r3, r2
   11cce:	f000 81dd 	beq.w	1208c <printf_positional+0xfa0>
   11cd2:	1c5a      	adds	r2, r3, #1
   11cd4:	f8cb 2004 	str.w	r2, [fp, #4]
   11cd8:	7019      	strb	r1, [r3, #0]
   11cda:	9b07      	ldr	r3, [sp, #28]
   11cdc:	421d      	tst	r5, r3
   11cde:	f43f ab97 	beq.w	11410 <printf_positional+0x324>
   11ce2:	463a      	mov	r2, r7
   11ce4:	2120      	movs	r1, #32
   11ce6:	4658      	mov	r0, fp
   11ce8:	f017 fa34 	bl	29154 <__printf_buffer_pad_1>
   11cec:	f7ff bb90 	b.w	11410 <printf_positional+0x324>
   11cf0:	4602      	mov	r2, r0
   11cf2:	4641      	mov	r1, r8
   11cf4:	4658      	mov	r0, fp
   11cf6:	f017 fb55 	bl	293a4 <__printf_buffer_write>
   11cfa:	2f00      	cmp	r7, #0
   11cfc:	f77f ab88 	ble.w	11410 <printf_positional+0x324>
   11d00:	e7ef      	b.n	11ce2 <printf_positional+0xbf6>
   11d02:	2a00      	cmp	r2, #0
   11d04:	f77f ad7b 	ble.w	117fe <printf_positional+0x712>
   11d08:	9914      	ldr	r1, [sp, #80]	@ 0x50
   11d0a:	4658      	mov	r0, fp
   11d0c:	9306      	str	r3, [sp, #24]
   11d0e:	f017 fa21 	bl	29154 <__printf_buffer_pad_1>
   11d12:	9b06      	ldr	r3, [sp, #24]
   11d14:	e74e      	b.n	11bb4 <printf_positional+0xac8>
   11d16:	2300      	movs	r3, #0
   11d18:	6028      	str	r0, [r5, #0]
   11d1a:	606b      	str	r3, [r5, #4]
   11d1c:	f7ff bb78 	b.w	11410 <printf_positional+0x324>
   11d20:	990b      	ldr	r1, [sp, #44]	@ 0x2c
   11d22:	f44f 727a 	mov.w	r2, #1000	@ 0x3e8
   11d26:	f8dd 0908 	ldr.w	r0, [sp, #2312]	@ 0x908
   11d2a:	f006 fef5 	bl	18b18 <__strerror_r>
   11d2e:	4606      	mov	r6, r0
   11d30:	e5ae      	b.n	11890 <printf_positional+0x7a4>
   11d32:	8816      	ldrh	r6, [r2, #0]
   11d34:	f8dd a040 	ldr.w	sl, [sp, #64]	@ 0x40
   11d38:	9606      	str	r6, [sp, #24]
   11d3a:	f8cd a044 	str.w	sl, [sp, #68]	@ 0x44
   11d3e:	e6a3      	b.n	11a88 <printf_positional+0x99c>
   11d40:	9903      	ldr	r1, [sp, #12]
   11d42:	220a      	movs	r2, #10
   11d44:	9213      	str	r2, [sp, #76]	@ 0x4c
   11d46:	eb01 02c3 	add.w	r2, r1, r3, lsl #3
   11d4a:	f851 6033 	ldr.w	r6, [r1, r3, lsl #3]
   11d4e:	6852      	ldr	r2, [r2, #4]
   11d50:	17d3      	asrs	r3, r2, #31
   11d52:	405e      	eors	r6, r3
   11d54:	ea83 0102 	eor.w	r1, r3, r2
   11d58:	1af6      	subs	r6, r6, r3
   11d5a:	ea4f 72d2 	mov.w	r2, r2, lsr #31
   11d5e:	eb61 0303 	sbc.w	r3, r1, r3
   11d62:	9209      	str	r2, [sp, #36]	@ 0x24
   11d64:	4619      	mov	r1, r3
   11d66:	e4d6      	b.n	11716 <printf_positional+0x62a>
   11d68:	9b06      	ldr	r3, [sp, #24]
   11d6a:	9a13      	ldr	r2, [sp, #76]	@ 0x4c
   11d6c:	2a08      	cmp	r2, #8
   11d6e:	bf14      	ite	ne
   11d70:	2300      	movne	r3, #0
   11d72:	f003 0301 	andeq.w	r3, r3, #1
   11d76:	2b00      	cmp	r3, #0
   11d78:	f000 810c 	beq.w	11f94 <printf_positional+0xea8>
   11d7c:	9a0b      	ldr	r2, [sp, #44]	@ 0x2c
   11d7e:	2330      	movs	r3, #48	@ 0x30
   11d80:	2501      	movs	r5, #1
   11d82:	9510      	str	r5, [sp, #64]	@ 0x40
   11d84:	f882 33e7 	strb.w	r3, [r2, #999]	@ 0x3e7
   11d88:	f202 33e7 	addw	r3, r2, #999	@ 0x3e7
   11d8c:	9312      	str	r3, [sp, #72]	@ 0x48
   11d8e:	2320      	movs	r3, #32
   11d90:	9314      	str	r3, [sp, #80]	@ 0x50
   11d92:	e4dc      	b.n	1174e <printf_positional+0x662>
   11d94:	e9db 3201 	ldrd	r3, r2, [fp, #4]
   11d98:	4293      	cmp	r3, r2
   11d9a:	f000 81b6 	beq.w	1210a <printf_positional+0x101e>
   11d9e:	1c5a      	adds	r2, r3, #1
   11da0:	f8cb 2004 	str.w	r2, [fp, #4]
   11da4:	222b      	movs	r2, #43	@ 0x2b
   11da6:	701a      	strb	r2, [r3, #0]
   11da8:	7b23      	ldrb	r3, [r4, #12]
   11daa:	f7ff bbaa 	b.w	11502 <printf_positional+0x416>
   11dae:	e9db 3201 	ldrd	r3, r2, [fp, #4]
   11db2:	4293      	cmp	r3, r2
   11db4:	f000 81c1 	beq.w	1213a <printf_positional+0x104e>
   11db8:	1c5a      	adds	r2, r3, #1
   11dba:	f8cb 2004 	str.w	r2, [fp, #4]
   11dbe:	2223      	movs	r2, #35	@ 0x23
   11dc0:	701a      	strb	r2, [r3, #0]
   11dc2:	7b23      	ldrb	r3, [r4, #12]
   11dc4:	f7ff bb94 	b.w	114f0 <printf_positional+0x404>
   11dc8:	f1b9 0f05 	cmp.w	r9, #5
   11dcc:	bfb8      	it	lt
   11dce:	f04f 0905 	movlt.w	r9, #5
   11dd2:	2d53      	cmp	r5, #83	@ 0x53
   11dd4:	d05d      	beq.n	11e92 <printf_positional+0xda6>
   11dd6:	4e09      	ldr	r6, [pc, #36]	@ (11dfc <printf_positional+0xd10>)
   11dd8:	447e      	add	r6, pc
   11dda:	e569      	b.n	118b0 <printf_positional+0x7c4>
   11ddc:	4635      	mov	r5, r6
   11dde:	4e08      	ldr	r6, [pc, #32]	@ (11e00 <printf_positional+0xd14>)
   11de0:	447e      	add	r6, pc
   11de2:	e56a      	b.n	118ba <printf_positional+0x7ce>
   11de4:	212b      	movs	r1, #43	@ 0x2b
   11de6:	4658      	mov	r0, fp
   11de8:	9306      	str	r3, [sp, #24]
   11dea:	f017 f9e3 	bl	291b4 <__printf_buffer_putc_1>
   11dee:	9b06      	ldr	r3, [sp, #24]
   11df0:	e505      	b.n	117fe <printf_positional+0x712>
   11df2:	bf00      	nop
   11df4:	00050698 	.word	0x00050698
   11df8:	00035c62 	.word	0x00035c62
   11dfc:	00035748 	.word	0x00035748
   11e00:	0003b660 	.word	0x0003b660
   11e04:	68a1      	ldr	r1, [r4, #8]
   11e06:	2900      	cmp	r1, #0
   11e08:	f43f ab02 	beq.w	11410 <printf_positional+0x324>
   11e0c:	e9db 3201 	ldrd	r3, r2, [fp, #4]
   11e10:	b2c9      	uxtb	r1, r1
   11e12:	4293      	cmp	r3, r2
   11e14:	f000 818c 	beq.w	12130 <printf_positional+0x1044>
   11e18:	1c5a      	adds	r2, r3, #1
   11e1a:	f8cb 2004 	str.w	r2, [fp, #4]
   11e1e:	7019      	strb	r1, [r3, #0]
   11e20:	f7ff baf6 	b.w	11410 <printf_positional+0x324>
   11e24:	e9db 2101 	ldrd	r2, r1, [fp, #4]
   11e28:	428a      	cmp	r2, r1
   11e2a:	f000 8133 	beq.w	12094 <printf_positional+0xfa8>
   11e2e:	1c51      	adds	r1, r2, #1
   11e30:	f8cb 1004 	str.w	r1, [fp, #4]
   11e34:	212b      	movs	r1, #43	@ 0x2b
   11e36:	7011      	strb	r1, [r2, #0]
   11e38:	e6ec      	b.n	11c14 <printf_positional+0xb28>
   11e3a:	9320      	str	r3, [sp, #128]	@ 0x80
   11e3c:	4ac9      	ldr	r2, [pc, #804]	@ (12164 <printf_positional+0x1078>)
   11e3e:	9912      	ldr	r1, [sp, #72]	@ 0x48
   11e40:	447a      	add	r2, pc
   11e42:	6812      	ldr	r2, [r2, #0]
   11e44:	f858 0002 	ldr.w	r0, [r8, r2]
   11e48:	9a0a      	ldr	r2, [sp, #40]	@ 0x28
   11e4a:	f019 fc85 	bl	2b758 <__translated_number_width>
   11e4e:	f8dd 8010 	ldr.w	r8, [sp, #16]
   11e52:	9b20      	ldr	r3, [sp, #128]	@ 0x80
   11e54:	9010      	str	r0, [sp, #64]	@ 0x40
   11e56:	951f      	str	r5, [sp, #124]	@ 0x7c
   11e58:	e674      	b.n	11b44 <printf_positional+0xa58>
   11e5a:	f04f 0901 	mov.w	r9, #1
   11e5e:	e465      	b.n	1172c <printf_positional+0x640>
   11e60:	462a      	mov	r2, r5
   11e62:	4631      	mov	r1, r6
   11e64:	4658      	mov	r0, fp
   11e66:	f017 fa9d 	bl	293a4 <__printf_buffer_write>
   11e6a:	2f00      	cmp	r7, #0
   11e6c:	f43f aad0 	beq.w	11410 <printf_positional+0x324>
   11e70:	e737      	b.n	11ce2 <printf_positional+0xbf6>
   11e72:	2a00      	cmp	r2, #0
   11e74:	f77f ae9c 	ble.w	11bb0 <printf_positional+0xac4>
   11e78:	9914      	ldr	r1, [sp, #80]	@ 0x50
   11e7a:	4658      	mov	r0, fp
   11e7c:	9306      	str	r3, [sp, #24]
   11e7e:	f017 f969 	bl	29154 <__printf_buffer_pad_1>
   11e82:	9b06      	ldr	r3, [sp, #24]
   11e84:	e694      	b.n	11bb0 <printf_positional+0xac4>
   11e86:	f1b9 0f00 	cmp.w	r9, #0
   11e8a:	f47f aa61 	bne.w	11350 <printf_positional+0x264>
   11e8e:	f7ff b9d9 	b.w	11244 <printf_positional+0x158>
   11e92:	4eb6      	ldr	r6, [pc, #728]	@ (1216c <printf_positional+0x1080>)
   11e94:	447e      	add	r6, pc
   11e96:	9b07      	ldr	r3, [sp, #28]
   11e98:	464a      	mov	r2, r9
   11e9a:	9300      	str	r3, [sp, #0]
   11e9c:	4631      	mov	r1, r6
   11e9e:	463b      	mov	r3, r7
   11ea0:	4658      	mov	r0, fp
   11ea2:	f7ff f813 	bl	10ecc <outstring_converted_wide_string>
   11ea6:	f7ff bab3 	b.w	11410 <printf_positional+0x324>
   11eaa:	e9db 2101 	ldrd	r2, r1, [fp, #4]
   11eae:	428a      	cmp	r2, r1
   11eb0:	f000 8117 	beq.w	120e2 <printf_positional+0xff6>
   11eb4:	1c51      	adds	r1, r2, #1
   11eb6:	f8cb 1004 	str.w	r1, [fp, #4]
   11eba:	2120      	movs	r1, #32
   11ebc:	7011      	strb	r1, [r2, #0]
   11ebe:	e6a9      	b.n	11c14 <printf_positional+0xb28>
   11ec0:	e9db 3201 	ldrd	r3, r2, [fp, #4]
   11ec4:	4293      	cmp	r3, r2
   11ec6:	f000 812d 	beq.w	12124 <printf_positional+0x1038>
   11eca:	1c5a      	adds	r2, r3, #1
   11ecc:	f8cb 2004 	str.w	r2, [fp, #4]
   11ed0:	2249      	movs	r2, #73	@ 0x49
   11ed2:	701a      	strb	r2, [r3, #0]
   11ed4:	f7ff bb20 	b.w	11518 <printf_positional+0x42c>
   11ed8:	f60d 05c8 	addw	r5, sp, #2248	@ 0x8c8
   11edc:	2300      	movs	r3, #0
   11ede:	220a      	movs	r2, #10
   11ee0:	4629      	mov	r1, r5
   11ee2:	f016 fe3b 	bl	28b5c <_itoa_word>
   11ee6:	4606      	mov	r6, r0
   11ee8:	42a8      	cmp	r0, r5
   11eea:	d308      	bcc.n	11efe <printf_positional+0xe12>
   11eec:	f7ff bb18 	b.w	11520 <printf_positional+0x434>
   11ef0:	1c5a      	adds	r2, r3, #1
   11ef2:	f8cb 2004 	str.w	r2, [fp, #4]
   11ef6:	7019      	strb	r1, [r3, #0]
   11ef8:	42ae      	cmp	r6, r5
   11efa:	f43f ab11 	beq.w	11520 <printf_positional+0x434>
   11efe:	e9db 3201 	ldrd	r3, r2, [fp, #4]
   11f02:	f816 1b01 	ldrb.w	r1, [r6], #1
   11f06:	4293      	cmp	r3, r2
   11f08:	d1f2      	bne.n	11ef0 <printf_positional+0xe04>
   11f0a:	4658      	mov	r0, fp
   11f0c:	f017 f952 	bl	291b4 <__printf_buffer_putc_1>
   11f10:	e7f2      	b.n	11ef8 <printf_positional+0xe0c>
   11f12:	e9db 3201 	ldrd	r3, r2, [fp, #4]
   11f16:	4293      	cmp	r3, r2
   11f18:	f000 80fe 	beq.w	12118 <printf_positional+0x102c>
   11f1c:	1c5a      	adds	r2, r3, #1
   11f1e:	f8cb 2004 	str.w	r2, [fp, #4]
   11f22:	222d      	movs	r2, #45	@ 0x2d
   11f24:	701a      	strb	r2, [r3, #0]
   11f26:	f7ff baef 	b.w	11508 <printf_positional+0x41c>
   11f2a:	4630      	mov	r0, r6
   11f2c:	f006 fea8 	bl	18c80 <strlen>
   11f30:	4605      	mov	r5, r0
   11f32:	e4c2      	b.n	118ba <printf_positional+0x7ce>
   11f34:	f8dd 3908 	ldr.w	r3, [sp, #2312]	@ 0x908
   11f38:	9306      	str	r3, [sp, #24]
   11f3a:	2b00      	cmp	r3, #0
   11f3c:	f2c0 809b 	blt.w	12076 <printf_positional+0xf8a>
   11f40:	230a      	movs	r3, #10
   11f42:	9609      	str	r6, [sp, #36]	@ 0x24
   11f44:	9313      	str	r3, [sp, #76]	@ 0x4c
   11f46:	f8dd 6908 	ldr.w	r6, [sp, #2312]	@ 0x908
   11f4a:	e59d      	b.n	11a88 <printf_positional+0x99c>
   11f4c:	463a      	mov	r2, r7
   11f4e:	4658      	mov	r0, fp
   11f50:	2120      	movs	r1, #32
   11f52:	f017 f8ff 	bl	29154 <__printf_buffer_pad_1>
   11f56:	4632      	mov	r2, r6
   11f58:	4641      	mov	r1, r8
   11f5a:	4658      	mov	r0, fp
   11f5c:	f017 fa22 	bl	293a4 <__printf_buffer_write>
   11f60:	f7ff ba56 	b.w	11410 <printf_positional+0x324>
   11f64:	e9db 3201 	ldrd	r3, r2, [fp, #4]
   11f68:	4293      	cmp	r3, r2
   11f6a:	f000 8101 	beq.w	12170 <printf_positional+0x1084>
   11f6e:	1c5a      	adds	r2, r3, #1
   11f70:	f8cb 2004 	str.w	r2, [fp, #4]
   11f74:	2227      	movs	r2, #39	@ 0x27
   11f76:	701a      	strb	r2, [r3, #0]
   11f78:	7b23      	ldrb	r3, [r4, #12]
   11f7a:	f7ff babc 	b.w	114f6 <printf_positional+0x40a>
   11f7e:	9b12      	ldr	r3, [sp, #72]	@ 0x48
   11f80:	2b00      	cmp	r3, #0
   11f82:	d175      	bne.n	12070 <printf_positional+0xf84>
   11f84:	6028      	str	r0, [r5, #0]
   11f86:	f7ff ba43 	b.w	11410 <printf_positional+0x324>
   11f8a:	9b12      	ldr	r3, [sp, #72]	@ 0x48
   11f8c:	2b00      	cmp	r3, #0
   11f8e:	d179      	bne.n	12084 <printf_positional+0xf98>
   11f90:	6813      	ldr	r3, [r2, #0]
   11f92:	e45f      	b.n	11854 <printf_positional+0x768>
   11f94:	9b0a      	ldr	r3, [sp, #40]	@ 0x28
   11f96:	464d      	mov	r5, r9
   11f98:	9312      	str	r3, [sp, #72]	@ 0x48
   11f9a:	2320      	movs	r3, #32
   11f9c:	f8cd 9040 	str.w	r9, [sp, #64]	@ 0x40
   11fa0:	9314      	str	r3, [sp, #80]	@ 0x50
   11fa2:	f7ff bbd4 	b.w	1174e <printf_positional+0x662>
   11fa6:	9a11      	ldr	r2, [sp, #68]	@ 0x44
   11fa8:	2a00      	cmp	r2, #0
   11faa:	f43f ac28 	beq.w	117fe <printf_positional+0x712>
   11fae:	e9db 2101 	ldrd	r2, r1, [fp, #4]
   11fb2:	428a      	cmp	r2, r1
   11fb4:	f000 809c 	beq.w	120f0 <printf_positional+0x1004>
   11fb8:	1c51      	adds	r1, r2, #1
   11fba:	f8cb 1004 	str.w	r1, [fp, #4]
   11fbe:	2120      	movs	r1, #32
   11fc0:	7011      	strb	r1, [r2, #0]
   11fc2:	e41c      	b.n	117fe <printf_positional+0x712>
   11fc4:	9d1b      	ldr	r5, [sp, #108]	@ 0x6c
   11fc6:	4628      	mov	r0, r5
   11fc8:	f006 fe5a 	bl	18c80 <strlen>
   11fcc:	1c41      	adds	r1, r0, #1
   11fce:	4628      	mov	r0, r5
   11fd0:	f009 f8d4 	bl	1b17c <__readonly_area>
   11fd4:	9018      	str	r0, [sp, #96]	@ 0x60
   11fd6:	e489      	b.n	118ec <printf_positional+0x800>
   11fd8:	e9db 3201 	ldrd	r3, r2, [fp, #4]
   11fdc:	4293      	cmp	r3, r2
   11fde:	f000 80ce 	beq.w	1217e <printf_positional+0x1092>
   11fe2:	1c5a      	adds	r2, r3, #1
   11fe4:	f8cb 2004 	str.w	r2, [fp, #4]
   11fe8:	2220      	movs	r2, #32
   11fea:	701a      	strb	r2, [r3, #0]
   11fec:	7b23      	ldrb	r3, [r4, #12]
   11fee:	f7ff ba88 	b.w	11502 <printf_positional+0x416>
   11ff2:	e9db 3201 	ldrd	r3, r2, [fp, #4]
   11ff6:	4293      	cmp	r3, r2
   11ff8:	f000 80c8 	beq.w	1218c <printf_positional+0x10a0>
   11ffc:	1c5a      	adds	r2, r3, #1
   11ffe:	f8cb 2004 	str.w	r2, [fp, #4]
   12002:	7019      	strb	r1, [r3, #0]
   12004:	f7ff ba84 	b.w	11510 <printf_positional+0x424>
   12008:	7b23      	ldrb	r3, [r4, #12]
   1200a:	f023 0301 	bic.w	r3, r3, #1
   1200e:	7323      	strb	r3, [r4, #12]
   12010:	2307      	movs	r3, #7
   12012:	62a3      	str	r3, [r4, #40]	@ 0x28
   12014:	f7ff bb2c 	b.w	11670 <printf_positional+0x584>
   12018:	2130      	movs	r1, #48	@ 0x30
   1201a:	4658      	mov	r0, fp
   1201c:	f017 f8ca 	bl	291b4 <__printf_buffer_putc_1>
   12020:	f7ff bbf6 	b.w	11810 <printf_positional+0x724>
   12024:	212d      	movs	r1, #45	@ 0x2d
   12026:	4658      	mov	r0, fp
   12028:	9307      	str	r3, [sp, #28]
   1202a:	f017 f8c3 	bl	291b4 <__printf_buffer_putc_1>
   1202e:	9b07      	ldr	r3, [sp, #28]
   12030:	e5f0      	b.n	11c14 <printf_positional+0xb28>
   12032:	212d      	movs	r1, #45	@ 0x2d
   12034:	4658      	mov	r0, fp
   12036:	9306      	str	r3, [sp, #24]
   12038:	f017 f8bc 	bl	291b4 <__printf_buffer_putc_1>
   1203c:	9b06      	ldr	r3, [sp, #24]
   1203e:	f7ff bbde 	b.w	117fe <printf_positional+0x712>
   12042:	2125      	movs	r1, #37	@ 0x25
   12044:	4658      	mov	r0, fp
   12046:	f017 f8b5 	bl	291b4 <__printf_buffer_putc_1>
   1204a:	f7ff b9e1 	b.w	11410 <printf_positional+0x324>
   1204e:	2130      	movs	r1, #48	@ 0x30
   12050:	4658      	mov	r0, fp
   12052:	f017 f8af 	bl	291b4 <__printf_buffer_putc_1>
   12056:	e4d7      	b.n	11a08 <printf_positional+0x91c>
   12058:	2125      	movs	r1, #37	@ 0x25
   1205a:	4658      	mov	r0, fp
   1205c:	f017 f8aa 	bl	291b4 <__printf_buffer_putc_1>
   12060:	f7ff ba42 	b.w	114e8 <printf_positional+0x3fc>
   12064:	463a      	mov	r2, r7
   12066:	2120      	movs	r1, #32
   12068:	4658      	mov	r0, fp
   1206a:	f017 f873 	bl	29154 <__printf_buffer_pad_1>
   1206e:	e627      	b.n	11cc0 <printf_positional+0xbd4>
   12070:	8028      	strh	r0, [r5, #0]
   12072:	f7ff b9cd 	b.w	11410 <printf_positional+0x324>
   12076:	425e      	negs	r6, r3
   12078:	230a      	movs	r3, #10
   1207a:	9606      	str	r6, [sp, #24]
   1207c:	9313      	str	r3, [sp, #76]	@ 0x4c
   1207e:	2301      	movs	r3, #1
   12080:	9309      	str	r3, [sp, #36]	@ 0x24
   12082:	e501      	b.n	11a88 <printf_positional+0x99c>
   12084:	f9b2 3000 	ldrsh.w	r3, [r2]
   12088:	f7ff bbe4 	b.w	11854 <printf_positional+0x768>
   1208c:	4658      	mov	r0, fp
   1208e:	f017 f891 	bl	291b4 <__printf_buffer_putc_1>
   12092:	e622      	b.n	11cda <printf_positional+0xbee>
   12094:	212b      	movs	r1, #43	@ 0x2b
   12096:	4658      	mov	r0, fp
   12098:	9307      	str	r3, [sp, #28]
   1209a:	f017 f88b 	bl	291b4 <__printf_buffer_putc_1>
   1209e:	9b07      	ldr	r3, [sp, #28]
   120a0:	e5b8      	b.n	11c14 <printf_positional+0xb28>
   120a2:	4b31      	ldr	r3, [pc, #196]	@ (12168 <printf_positional+0x107c>)
   120a4:	ee1d 2f70 	mrc	15, 0, r2, cr13, cr0, {3}
   120a8:	4645      	mov	r5, r8
   120aa:	f04f 36ff 	mov.w	r6, #4294967295	@ 0xffffffff
   120ae:	447b      	add	r3, pc
   120b0:	681b      	ldr	r3, [r3, #0]
   120b2:	58d2      	ldr	r2, [r2, r3]
   120b4:	ab23      	add	r3, sp, #140	@ 0x8c
   120b6:	4618      	mov	r0, r3
   120b8:	931d      	str	r3, [sp, #116]	@ 0x74
   120ba:	2301      	movs	r3, #1
   120bc:	4619      	mov	r1, r3
   120be:	f016 ffab 	bl	29018 <__grouping_iterator_init>
   120c2:	2201      	movs	r2, #1
   120c4:	2020      	movs	r0, #32
   120c6:	9210      	str	r2, [sp, #64]	@ 0x40
   120c8:	9b06      	ldr	r3, [sp, #24]
   120ca:	2208      	movs	r2, #8
   120cc:	f8cd 805c 	str.w	r8, [sp, #92]	@ 0x5c
   120d0:	e9cd 2013 	strd	r2, r0, [sp, #76]	@ 0x4c
   120d4:	e533      	b.n	11b3e <printf_positional+0xa52>
   120d6:	212e      	movs	r1, #46	@ 0x2e
   120d8:	4658      	mov	r0, fp
   120da:	f017 f86b 	bl	291b4 <__printf_buffer_putc_1>
   120de:	f7ff ba2d 	b.w	1153c <printf_positional+0x450>
   120e2:	2120      	movs	r1, #32
   120e4:	4658      	mov	r0, fp
   120e6:	9307      	str	r3, [sp, #28]
   120e8:	f017 f864 	bl	291b4 <__printf_buffer_putc_1>
   120ec:	9b07      	ldr	r3, [sp, #28]
   120ee:	e591      	b.n	11c14 <printf_positional+0xb28>
   120f0:	2120      	movs	r1, #32
   120f2:	4658      	mov	r0, fp
   120f4:	9306      	str	r3, [sp, #24]
   120f6:	f017 f85d 	bl	291b4 <__printf_buffer_putc_1>
   120fa:	9b06      	ldr	r3, [sp, #24]
   120fc:	f7ff bb7f 	b.w	117fe <printf_positional+0x712>
   12100:	9b13      	ldr	r3, [sp, #76]	@ 0x4c
   12102:	f083 0301 	eor.w	r3, r3, #1
   12106:	f7ff bbc7 	b.w	11898 <printf_positional+0x7ac>
   1210a:	212b      	movs	r1, #43	@ 0x2b
   1210c:	4658      	mov	r0, fp
   1210e:	f017 f851 	bl	291b4 <__printf_buffer_putc_1>
   12112:	7b23      	ldrb	r3, [r4, #12]
   12114:	f7ff b9f5 	b.w	11502 <printf_positional+0x416>
   12118:	212d      	movs	r1, #45	@ 0x2d
   1211a:	4658      	mov	r0, fp
   1211c:	f017 f84a 	bl	291b4 <__printf_buffer_putc_1>
   12120:	f7ff b9f2 	b.w	11508 <printf_positional+0x41c>
   12124:	2149      	movs	r1, #73	@ 0x49
   12126:	4658      	mov	r0, fp
   12128:	f017 f844 	bl	291b4 <__printf_buffer_putc_1>
   1212c:	f7ff b9f4 	b.w	11518 <printf_positional+0x42c>
   12130:	4658      	mov	r0, fp
   12132:	f017 f83f 	bl	291b4 <__printf_buffer_putc_1>
   12136:	f7ff b96b 	b.w	11410 <printf_positional+0x324>
   1213a:	2123      	movs	r1, #35	@ 0x23
   1213c:	4658      	mov	r0, fp
   1213e:	f017 f839 	bl	291b4 <__printf_buffer_putc_1>
   12142:	7b23      	ldrb	r3, [r4, #12]
   12144:	f7ff b9d4 	b.w	114f0 <printf_positional+0x404>
   12148:	990f      	ldr	r1, [sp, #60]	@ 0x3c
   1214a:	4658      	mov	r0, fp
   1214c:	9306      	str	r3, [sp, #24]
   1214e:	f017 f831 	bl	291b4 <__printf_buffer_putc_1>
   12152:	9b06      	ldr	r3, [sp, #24]
   12154:	e58a      	b.n	11c6c <printf_positional+0xb80>
   12156:	2130      	movs	r1, #48	@ 0x30
   12158:	4658      	mov	r0, fp
   1215a:	9306      	str	r3, [sp, #24]
   1215c:	f017 f82a 	bl	291b4 <__printf_buffer_putc_1>
   12160:	9b06      	ldr	r3, [sp, #24]
   12162:	e579      	b.n	11c58 <printf_positional+0xb6c>
   12164:	00050370 	.word	0x00050370
   12168:	00050102 	.word	0x00050102
   1216c:	0003568c 	.word	0x0003568c
   12170:	2127      	movs	r1, #39	@ 0x27
   12172:	4658      	mov	r0, fp
   12174:	f017 f81e 	bl	291b4 <__printf_buffer_putc_1>
   12178:	7b23      	ldrb	r3, [r4, #12]
   1217a:	f7ff b9bc 	b.w	114f6 <printf_positional+0x40a>
   1217e:	2120      	movs	r1, #32
   12180:	4658      	mov	r0, fp
   12182:	f017 f817 	bl	291b4 <__printf_buffer_putc_1>
   12186:	7b23      	ldrb	r3, [r4, #12]
   12188:	f7ff b9bb 	b.w	11502 <printf_positional+0x416>
   1218c:	4658      	mov	r0, fp
   1218e:	f017 f811 	bl	291b4 <__printf_buffer_putc_1>
   12192:	f7ff b9bd 	b.w	11510 <printf_positional+0x424>
   12196:	990f      	ldr	r1, [sp, #60]	@ 0x3c
   12198:	4658      	mov	r0, fp
   1219a:	9306      	str	r3, [sp, #24]
   1219c:	f017 f80a 	bl	291b4 <__printf_buffer_putc_1>
   121a0:	9b06      	ldr	r3, [sp, #24]
   121a2:	f7ff bb2f 	b.w	11804 <printf_positional+0x718>
   121a6:	2130      	movs	r1, #48	@ 0x30
   121a8:	4658      	mov	r0, fp
   121aa:	9306      	str	r3, [sp, #24]
   121ac:	f017 f802 	bl	291b4 <__printf_buffer_putc_1>
   121b0:	9b06      	ldr	r3, [sp, #24]
   121b2:	e56f      	b.n	11c94 <printf_positional+0xba8>
   121b4:	9b0c      	ldr	r3, [sp, #48]	@ 0x30
   121b6:	619d      	str	r5, [r3, #24]
   121b8:	f7ff b844 	b.w	11244 <printf_positional+0x158>
   121bc:	9d03      	ldr	r5, [sp, #12]
   121be:	9c04      	ldr	r4, [sp, #16]
   121c0:	9109      	str	r1, [sp, #36]	@ 0x24
   121c2:	4641      	mov	r1, r8
   121c4:	4680      	mov	r8, r0
   121c6:	4670      	mov	r0, lr
   121c8:	930f      	str	r3, [sp, #60]	@ 0x3c
   121ca:	9b09      	ldr	r3, [sp, #36]	@ 0x24
   121cc:	f848 3006 	str.w	r3, [r8, r6]
   121d0:	f85b 3001 	ldr.w	r3, [fp, r1]
   121d4:	4911      	ldr	r1, [pc, #68]	@ (1221c <printf_positional+0x1130>)
   121d6:	f103 4380 	add.w	r3, r3, #1073741824	@ 0x40000000
   121da:	6802      	ldr	r2, [r0, #0]
   121dc:	4479      	add	r1, pc
   121de:	3b08      	subs	r3, #8
   121e0:	9809      	ldr	r0, [sp, #36]	@ 0x24
   121e2:	6809      	ldr	r1, [r1, #0]
   121e4:	4402      	add	r2, r0
   121e6:	9203      	str	r2, [sp, #12]
   121e8:	f851 3023 	ldr.w	r3, [r1, r3, lsl #2]
   121ec:	4639      	mov	r1, r7
   121ee:	4798      	blx	r3
   121f0:	9a03      	ldr	r2, [sp, #12]
   121f2:	9209      	str	r2, [sp, #36]	@ 0x24
   121f4:	f7ff b8df 	b.w	113b6 <printf_positional+0x2ca>
   121f8:	f009 f872 	bl	1b2e0 <__stack_chk_fail>
   121fc:	9b21      	ldr	r3, [sp, #132]	@ 0x84
   121fe:	b11b      	cbz	r3, 12208 <printf_positional+0x111c>
   12200:	4807      	ldr	r0, [pc, #28]	@ (12220 <printf_positional+0x1134>)
   12202:	4478      	add	r0, pc
   12204:	f001 fe2c 	bl	13e60 <__libc_fatal>
   12208:	4b06      	ldr	r3, [pc, #24]	@ (12224 <printf_positional+0x1138>)
   1220a:	f240 42f5 	movw	r2, #1269	@ 0x4f5
   1220e:	4906      	ldr	r1, [pc, #24]	@ (12228 <printf_positional+0x113c>)
   12210:	4806      	ldr	r0, [pc, #24]	@ (1222c <printf_positional+0x1140>)
   12212:	447b      	add	r3, pc
   12214:	4479      	add	r1, pc
   12216:	4478      	add	r0, pc
   12218:	f011 ff00 	bl	2401c <__libc_assert_fail>
   1221c:	000536cc 	.word	0x000536cc
   12220:	0003535e 	.word	0x0003535e
   12224:	0003539e 	.word	0x0003539e
   12228:	00035314 	.word	0x00035314
   1222c:	00035326 	.word	0x00035326

00012230 <__printf_buffer>:
   12230:	e92d 4ff0 	stmdb	sp!, {r4, r5, r6, r7, r8, r9, sl, fp, lr}
   12234:	4693      	mov	fp, r2
   12236:	4ea4      	ldr	r6, [pc, #656]	@ (124c8 <__printf_buffer+0x298>)
   12238:	4da4      	ldr	r5, [pc, #656]	@ (124cc <__printf_buffer+0x29c>)
   1223a:	f2ad 4dc4 	subw	sp, sp, #1220	@ 0x4c4
   1223e:	447e      	add	r6, pc
   12240:	4c9e      	ldr	r4, [pc, #632]	@ (124bc <__printf_buffer+0x28c>)
   12242:	5975      	ldr	r5, [r6, r5]
   12244:	460e      	mov	r6, r1
   12246:	682d      	ldr	r5, [r5, #0]
   12248:	f8cd 54bc 	str.w	r5, [sp, #1212]	@ 0x4bc
   1224c:	f04f 0500 	mov.w	r5, #0
   12250:	911f      	str	r1, [sp, #124]	@ 0x7c
   12252:	4605      	mov	r5, r0
   12254:	4630      	mov	r0, r6
   12256:	447c      	add	r4, pc
   12258:	6824      	ldr	r4, [r4, #0]
   1225a:	931a      	str	r3, [sp, #104]	@ 0x68
   1225c:	ee1d 3f70 	mrc	15, 0, r3, cr13, cr0, {3}
   12260:	2125      	movs	r1, #37	@ 0x25
   12262:	9317      	str	r3, [sp, #92]	@ 0x5c
   12264:	f8cd b098 	str.w	fp, [sp, #152]	@ 0x98
   12268:	591a      	ldr	r2, [r3, r4]
   1226a:	4634      	mov	r4, r6
   1226c:	ae25      	add	r6, sp, #148	@ 0x94
   1226e:	ab26      	add	r3, sp, #152	@ 0x98
   12270:	921e      	str	r2, [sp, #120]	@ 0x78
   12272:	9321      	str	r3, [sp, #132]	@ 0x84
   12274:	f006 fcca 	bl	18c0c <__strchrnul>
   12278:	4621      	mov	r1, r4
   1227a:	1b02      	subs	r2, r0, r4
   1227c:	9020      	str	r0, [sp, #128]	@ 0x80
   1227e:	4607      	mov	r7, r0
   12280:	6030      	str	r0, [r6, #0]
   12282:	4628      	mov	r0, r5
   12284:	f017 f88e 	bl	293a4 <__printf_buffer_write>
   12288:	69ab      	ldr	r3, [r5, #24]
   1228a:	2b00      	cmp	r3, #0
   1228c:	d031      	beq.n	122f2 <__printf_buffer+0xc2>
   1228e:	783b      	ldrb	r3, [r7, #0]
   12290:	2b00      	cmp	r3, #0
   12292:	d02e      	beq.n	122f2 <__printf_buffer+0xc2>
   12294:	4b8e      	ldr	r3, [pc, #568]	@ (124d0 <__printf_buffer+0x2a0>)
   12296:	447b      	add	r3, pc
   12298:	681a      	ldr	r2, [r3, #0]
   1229a:	9219      	str	r2, [sp, #100]	@ 0x64
   1229c:	2a00      	cmp	r2, #0
   1229e:	f041 8053 	bne.w	13348 <__printf_buffer+0x1118>
   122a2:	4b8c      	ldr	r3, [pc, #560]	@ (124d4 <__printf_buffer+0x2a4>)
   122a4:	447b      	add	r3, pc
   122a6:	681b      	ldr	r3, [r3, #0]
   122a8:	2b00      	cmp	r3, #0
   122aa:	f040 85d5 	bne.w	12e58 <__printf_buffer+0xc28>
   122ae:	4b8a      	ldr	r3, [pc, #552]	@ (124d8 <__printf_buffer+0x2a8>)
   122b0:	447b      	add	r3, pc
   122b2:	681b      	ldr	r3, [r3, #0]
   122b4:	2b00      	cmp	r3, #0
   122b6:	f040 85cf 	bne.w	12e58 <__printf_buffer+0xc28>
   122ba:	4b88      	ldr	r3, [pc, #544]	@ (124dc <__printf_buffer+0x2ac>)
   122bc:	9222      	str	r2, [sp, #136]	@ 0x88
   122be:	447b      	add	r3, pc
   122c0:	931b      	str	r3, [sp, #108]	@ 0x6c
   122c2:	4b87      	ldr	r3, [pc, #540]	@ (124e0 <__printf_buffer+0x2b0>)
   122c4:	920b      	str	r2, [sp, #44]	@ 0x2c
   122c6:	447b      	add	r3, pc
   122c8:	931c      	str	r3, [sp, #112]	@ 0x70
   122ca:	f04f 33ff 	mov.w	r3, #4294967295	@ 0xffffffff
   122ce:	9323      	str	r3, [sp, #140]	@ 0x8c
   122d0:	787c      	ldrb	r4, [r7, #1]
   122d2:	3701      	adds	r7, #1
   122d4:	6037      	str	r7, [r6, #0]
   122d6:	f1a4 0320 	sub.w	r3, r4, #32
   122da:	2b5a      	cmp	r3, #90	@ 0x5a
   122dc:	d919      	bls.n	12312 <__printf_buffer+0xe2>
   122de:	2c00      	cmp	r4, #0
   122e0:	f040 85c0 	bne.w	12e64 <__printf_buffer+0xc34>
   122e4:	4b76      	ldr	r3, [pc, #472]	@ (124c0 <__printf_buffer+0x290>)
   122e6:	2216      	movs	r2, #22
   122e8:	9917      	ldr	r1, [sp, #92]	@ 0x5c
   122ea:	447b      	add	r3, pc
   122ec:	681b      	ldr	r3, [r3, #0]
   122ee:	61ac      	str	r4, [r5, #24]
   122f0:	50ca      	str	r2, [r1, r3]
   122f2:	4a7c      	ldr	r2, [pc, #496]	@ (124e4 <__printf_buffer+0x2b4>)
   122f4:	4b75      	ldr	r3, [pc, #468]	@ (124cc <__printf_buffer+0x29c>)
   122f6:	447a      	add	r2, pc
   122f8:	58d3      	ldr	r3, [r2, r3]
   122fa:	681a      	ldr	r2, [r3, #0]
   122fc:	f8dd 34bc 	ldr.w	r3, [sp, #1212]	@ 0x4bc
   12300:	405a      	eors	r2, r3
   12302:	f04f 0300 	mov.w	r3, #0
   12306:	f041 80d4 	bne.w	134b2 <__printf_buffer+0x1282>
   1230a:	f20d 4dc4 	addw	sp, sp, #1220	@ 0x4c4
   1230e:	e8bd 8ff0 	ldmia.w	sp!, {r4, r5, r6, r7, r8, r9, sl, fp, pc}
   12312:	9b1c      	ldr	r3, [sp, #112]	@ 0x70
   12314:	f04f 0a00 	mov.w	sl, #0
   12318:	9a1b      	ldr	r2, [sp, #108]	@ 0x6c
   1231a:	46d0      	mov	r8, sl
   1231c:	4423      	add	r3, r4
   1231e:	4657      	mov	r7, sl
   12320:	46d1      	mov	r9, sl
   12322:	f8cd a030 	str.w	sl, [sp, #48]	@ 0x30
   12326:	f8cd a024 	str.w	sl, [sp, #36]	@ 0x24
   1232a:	f813 3c20 	ldrb.w	r3, [r3, #-32]
   1232e:	f8cd a03c 	str.w	sl, [sp, #60]	@ 0x3c
   12332:	f8cd a034 	str.w	sl, [sp, #52]	@ 0x34
   12336:	eb02 0383 	add.w	r3, r2, r3, lsl #2
   1233a:	f8cd a048 	str.w	sl, [sp, #72]	@ 0x48
   1233e:	f8cd a040 	str.w	sl, [sp, #64]	@ 0x40
   12342:	f8d3 2080 	ldr.w	r2, [r3, #128]	@ 0x80
   12346:	2320      	movs	r3, #32
   12348:	930e      	str	r3, [sp, #56]	@ 0x38
   1234a:	f04f 33ff 	mov.w	r3, #4294967295	@ 0xffffffff
   1234e:	f042 0201 	orr.w	r2, r2, #1
   12352:	930a      	str	r3, [sp, #40]	@ 0x28
   12354:	4653      	mov	r3, sl
   12356:	4710      	bx	r2
   12358:	9a1a      	ldr	r2, [sp, #104]	@ 0x68
   1235a:	07d0      	lsls	r0, r2, #31
   1235c:	bf46      	itte	mi
   1235e:	2200      	movmi	r2, #0
   12360:	9209      	strmi	r2, [sp, #36]	@ 0x24
   12362:	9a09      	ldrpl	r2, [sp, #36]	@ 0x24
   12364:	ea42 0343 	orr.w	r3, r2, r3, lsl #1
   12368:	9a10      	ldr	r2, [sp, #64]	@ 0x40
   1236a:	ea43 0387 	orr.w	r3, r3, r7, lsl #2
   1236e:	ea43 03c2 	orr.w	r3, r3, r2, lsl #3
   12372:	9a12      	ldr	r2, [sp, #72]	@ 0x48
   12374:	ea43 1302 	orr.w	r3, r3, r2, lsl #4
   12378:	9a0d      	ldr	r2, [sp, #52]	@ 0x34
   1237a:	ea43 1342 	orr.w	r3, r3, r2, lsl #5
   1237e:	9a0f      	ldr	r2, [sp, #60]	@ 0x3c
   12380:	ea43 1382 	orr.w	r3, r3, r2, lsl #6
   12384:	f10b 0207 	add.w	r2, fp, #7
   12388:	ea43 13c9 	orr.w	r3, r3, r9, lsl #7
   1238c:	f022 0b07 	bic.w	fp, r2, #7
   12390:	9a0a      	ldr	r2, [sp, #40]	@ 0x28
   12392:	ea43 23ca 	orr.w	r3, r3, sl, lsl #11
   12396:	922a      	str	r2, [sp, #168]	@ 0xa8
   12398:	f10d 09a8 	add.w	r9, sp, #168	@ 0xa8
   1239c:	9a0c      	ldr	r2, [sp, #48]	@ 0x30
   1239e:	e8fb 0102 	ldrd	r0, r1, [fp], #8
   123a2:	f8c9 2004 	str.w	r2, [r9, #4]
   123a6:	9a0e      	ldr	r2, [sp, #56]	@ 0x38
   123a8:	f8c9 2010 	str.w	r2, [r9, #16]
   123ac:	2200      	movs	r2, #0
   123ae:	f8c9 200c 	str.w	r2, [r9, #12]
   123b2:	aa28      	add	r2, sp, #160	@ 0xa0
   123b4:	f8a9 300c 	strh.w	r3, [r9, #12]
   123b8:	9b09      	ldr	r3, [sp, #36]	@ 0x24
   123ba:	f8c9 4008 	str.w	r4, [r9, #8]
   123be:	2b00      	cmp	r3, #0
   123c0:	d14c      	bne.n	1245c <__printf_buffer+0x22c>
   123c2:	e9cd 0128 	strd	r0, r1, [sp, #160]	@ 0xa0
   123c6:	9227      	str	r2, [sp, #156]	@ 0x9c
   123c8:	f024 0420 	bic.w	r4, r4, #32
   123cc:	4a3d      	ldr	r2, [pc, #244]	@ (124c4 <__printf_buffer+0x294>)
   123ce:	ab27      	add	r3, sp, #156	@ 0x9c
   123d0:	9917      	ldr	r1, [sp, #92]	@ 0x5c
   123d2:	4628      	mov	r0, r5
   123d4:	447a      	add	r2, pc
   123d6:	6812      	ldr	r2, [r2, #0]
   123d8:	2c41      	cmp	r4, #65	@ 0x41
   123da:	5889      	ldr	r1, [r1, r2]
   123dc:	464a      	mov	r2, r9
   123de:	f040 8562 	bne.w	12ea6 <__printf_buffer+0xc76>
   123e2:	f018 fed5 	bl	2b190 <__printf_fphex_l_buffer>
   123e6:	6834      	ldr	r4, [r6, #0]
   123e8:	2125      	movs	r1, #37	@ 0x25
   123ea:	9b0b      	ldr	r3, [sp, #44]	@ 0x2c
   123ec:	3401      	adds	r4, #1
   123ee:	4620      	mov	r0, r4
   123f0:	3301      	adds	r3, #1
   123f2:	930b      	str	r3, [sp, #44]	@ 0x2c
   123f4:	f006 fc0a 	bl	18c0c <__strchrnul>
   123f8:	4607      	mov	r7, r0
   123fa:	1b02      	subs	r2, r0, r4
   123fc:	6030      	str	r0, [r6, #0]
   123fe:	4621      	mov	r1, r4
   12400:	4628      	mov	r0, r5
   12402:	f016 ffcf 	bl	293a4 <__printf_buffer_write>
   12406:	783b      	ldrb	r3, [r7, #0]
   12408:	2b00      	cmp	r3, #0
   1240a:	f43f af72 	beq.w	122f2 <__printf_buffer+0xc2>
   1240e:	69ab      	ldr	r3, [r5, #24]
   12410:	2b00      	cmp	r3, #0
   12412:	f47f af5d 	bne.w	122d0 <__printf_buffer+0xa0>
   12416:	e76c      	b.n	122f2 <__printf_buffer+0xc2>
   12418:	aa2f      	add	r2, sp, #188	@ 0xbc
   1241a:	f10d 09c4 	add.w	r9, sp, #196	@ 0xc4
   1241e:	f85b 1b04 	ldr.w	r1, [fp], #4
   12422:	4648      	mov	r0, r9
   12424:	2700      	movs	r7, #0
   12426:	e9c2 7700 	strd	r7, r7, [r2]
   1242a:	f007 fabb 	bl	199a4 <__wcrtomb>
   1242e:	4604      	mov	r4, r0
   12430:	1c43      	adds	r3, r0, #1
   12432:	f001 8027 	beq.w	13484 <__printf_buffer+0x1254>
   12436:	9b0c      	ldr	r3, [sp, #48]	@ 0x30
   12438:	eba3 0800 	sub.w	r8, r3, r0
   1243c:	9b0d      	ldr	r3, [sp, #52]	@ 0x34
   1243e:	b983      	cbnz	r3, 12462 <__printf_buffer+0x232>
   12440:	f1b8 0f00 	cmp.w	r8, #0
   12444:	dd04      	ble.n	12450 <__printf_buffer+0x220>
   12446:	4642      	mov	r2, r8
   12448:	2120      	movs	r1, #32
   1244a:	4628      	mov	r0, r5
   1244c:	f016 fe82 	bl	29154 <__printf_buffer_pad_1>
   12450:	4622      	mov	r2, r4
   12452:	4649      	mov	r1, r9
   12454:	4628      	mov	r0, r5
   12456:	f016 ffa5 	bl	293a4 <__printf_buffer_write>
   1245a:	e7c4      	b.n	123e6 <__printf_buffer+0x1b6>
   1245c:	e9c2 0100 	strd	r0, r1, [r2]
   12460:	e7b1      	b.n	123c6 <__printf_buffer+0x196>
   12462:	4602      	mov	r2, r0
   12464:	4649      	mov	r1, r9
   12466:	4628      	mov	r0, r5
   12468:	f016 ff9c 	bl	293a4 <__printf_buffer_write>
   1246c:	f1b8 0f00 	cmp.w	r8, #0
   12470:	ddb9      	ble.n	123e6 <__printf_buffer+0x1b6>
   12472:	4642      	mov	r2, r8
   12474:	2120      	movs	r1, #32
   12476:	4628      	mov	r0, r5
   12478:	f016 fe6c 	bl	29154 <__printf_buffer_pad_1>
   1247c:	e7b3      	b.n	123e6 <__printf_buffer+0x1b6>
   1247e:	2f00      	cmp	r7, #0
   12480:	d1ca      	bne.n	12418 <__printf_buffer+0x1e8>
   12482:	9b0c      	ldr	r3, [sp, #48]	@ 0x30
   12484:	f103 38ff 	add.w	r8, r3, #4294967295	@ 0xffffffff
   12488:	9b0d      	ldr	r3, [sp, #52]	@ 0x34
   1248a:	f1b8 0f00 	cmp.w	r8, #0
   1248e:	f083 0301 	eor.w	r3, r3, #1
   12492:	bfd4      	ite	le
   12494:	2400      	movle	r4, #0
   12496:	2401      	movgt	r4, #1
   12498:	421c      	tst	r4, r3
   1249a:	f040 87a4 	bne.w	133e6 <__printf_buffer+0x11b6>
   1249e:	e9d5 2301 	ldrd	r2, r3, [r5, #4]
   124a2:	f85b 1b04 	ldr.w	r1, [fp], #4
   124a6:	429a      	cmp	r2, r3
   124a8:	b2c9      	uxtb	r1, r1
   124aa:	f000 87b1 	beq.w	13410 <__printf_buffer+0x11e0>
   124ae:	1c53      	adds	r3, r2, #1
   124b0:	606b      	str	r3, [r5, #4]
   124b2:	7011      	strb	r1, [r2, #0]
   124b4:	9b0d      	ldr	r3, [sp, #52]	@ 0x34
   124b6:	421c      	tst	r4, r3
   124b8:	d095      	beq.n	123e6 <__printf_buffer+0x1b6>
   124ba:	e7da      	b.n	12472 <__printf_buffer+0x242>
   124bc:	0004fec6 	.word	0x0004fec6
   124c0:	0004fe32 	.word	0x0004fe32
   124c4:	0004fddc 	.word	0x0004fddc
   124c8:	0004fdbe 	.word	0x0004fdbe
   124cc:	00000040 	.word	0x00000040
   124d0:	00053606 	.word	0x00053606
   124d4:	000535f0 	.word	0x000535f0
   124d8:	000535f8 	.word	0x000535f8
   124dc:	0004db26 	.word	0x0004db26
   124e0:	0003b66e 	.word	0x0003b66e
   124e4:	0004fd06 	.word	0x0004fd06
   124e8:	9b10      	ldr	r3, [sp, #64]	@ 0x40
   124ea:	2b00      	cmp	r3, #0
   124ec:	f000 85c0 	beq.w	13070 <__printf_buffer+0xe40>
   124f0:	981e      	ldr	r0, [sp, #120]	@ 0x78
   124f2:	f001 f8fd 	bl	136f0 <__get_errname>
   124f6:	4680      	mov	r8, r0
   124f8:	2701      	movs	r7, #1
   124fa:	f1b8 0f00 	cmp.w	r8, #0
   124fe:	f000 86c4 	beq.w	1328a <__printf_buffer+0x105a>
   12502:	2c53      	cmp	r4, #83	@ 0x53
   12504:	bf0c      	ite	eq
   12506:	2700      	moveq	r7, #0
   12508:	f007 0701 	andne.w	r7, r7, #1
   1250c:	2f00      	cmp	r7, #0
   1250e:	f000 8658 	beq.w	131c2 <__printf_buffer+0xf92>
   12512:	9b0a      	ldr	r3, [sp, #40]	@ 0x28
   12514:	3301      	adds	r3, #1
   12516:	f000 86b2 	beq.w	1327e <__printf_buffer+0x104e>
   1251a:	990a      	ldr	r1, [sp, #40]	@ 0x28
   1251c:	4640      	mov	r0, r8
   1251e:	f006 fc1d 	bl	18d5c <__strnlen>
   12522:	4604      	mov	r4, r0
   12524:	9b0c      	ldr	r3, [sp, #48]	@ 0x30
   12526:	1b1f      	subs	r7, r3, r4
   12528:	d409      	bmi.n	1253e <__printf_buffer+0x30e>
   1252a:	9b0d      	ldr	r3, [sp, #52]	@ 0x34
   1252c:	2b00      	cmp	r3, #0
   1252e:	f040 8510 	bne.w	12f52 <__printf_buffer+0xd22>
   12532:	b127      	cbz	r7, 1253e <__printf_buffer+0x30e>
   12534:	463a      	mov	r2, r7
   12536:	2120      	movs	r1, #32
   12538:	4628      	mov	r0, r5
   1253a:	f016 fe0b 	bl	29154 <__printf_buffer_pad_1>
   1253e:	4622      	mov	r2, r4
   12540:	4641      	mov	r1, r8
   12542:	4628      	mov	r0, r5
   12544:	f016 ff2e 	bl	293a4 <__printf_buffer_write>
   12548:	e74d      	b.n	123e6 <__printf_buffer+0x1b6>
   1254a:	9a1a      	ldr	r2, [sp, #104]	@ 0x68
   1254c:	0791      	lsls	r1, r2, #30
   1254e:	d507      	bpl.n	12560 <__printf_buffer+0x330>
   12550:	9a22      	ldr	r2, [sp, #136]	@ 0x88
   12552:	2a00      	cmp	r2, #0
   12554:	f000 8700 	beq.w	13358 <__printf_buffer+0x1128>
   12558:	9a22      	ldr	r2, [sp, #136]	@ 0x88
   1255a:	2a00      	cmp	r2, #0
   1255c:	f2c0 87ab 	blt.w	134b6 <__printf_buffer+0x1286>
   12560:	4628      	mov	r0, r5
   12562:	930a      	str	r3, [sp, #40]	@ 0x28
   12564:	f85b 7b04 	ldr.w	r7, [fp], #4
   12568:	f016 fdc8 	bl	290fc <__printf_buffer_done>
   1256c:	e9dd 2309 	ldrd	r2, r3, [sp, #36]	@ 0x24
   12570:	2a00      	cmp	r2, #0
   12572:	f000 85c0 	beq.w	130f6 <__printf_buffer+0xec6>
   12576:	2300      	movs	r3, #0
   12578:	6038      	str	r0, [r7, #0]
   1257a:	607b      	str	r3, [r7, #4]
   1257c:	e733      	b.n	123e6 <__printf_buffer+0x1b6>
   1257e:	465b      	mov	r3, fp
   12580:	f853 7b04 	ldr.w	r7, [r3], #4
   12584:	2f00      	cmp	r7, #0
   12586:	f000 8610 	beq.w	131aa <__printf_buffer+0xf7a>
   1258a:	469b      	mov	fp, r3
   1258c:	2300      	movs	r3, #0
   1258e:	2478      	movs	r4, #120	@ 0x78
   12590:	4699      	mov	r9, r3
   12592:	2201      	movs	r2, #1
   12594:	9313      	str	r3, [sp, #76]	@ 0x4c
   12596:	9210      	str	r2, [sp, #64]	@ 0x40
   12598:	2210      	movs	r2, #16
   1259a:	9309      	str	r3, [sp, #36]	@ 0x24
   1259c:	9214      	str	r2, [sp, #80]	@ 0x50
   1259e:	9b0a      	ldr	r3, [sp, #40]	@ 0x28
   125a0:	2b00      	cmp	r3, #0
   125a2:	f2c0 80ed 	blt.w	12780 <__printf_buffer+0x550>
   125a6:	f040 83b7 	bne.w	12d18 <__printf_buffer+0xae8>
   125aa:	2f00      	cmp	r7, #0
   125ac:	f040 83b4 	bne.w	12d18 <__printf_buffer+0xae8>
   125b0:	9b10      	ldr	r3, [sp, #64]	@ 0x40
   125b2:	9a14      	ldr	r2, [sp, #80]	@ 0x50
   125b4:	f003 0801 	and.w	r8, r3, #1
   125b8:	2a08      	cmp	r2, #8
   125ba:	bf14      	ite	ne
   125bc:	2300      	movne	r3, #0
   125be:	f003 0301 	andeq.w	r3, r3, #1
   125c2:	469a      	mov	sl, r3
   125c4:	2b00      	cmp	r3, #0
   125c6:	f040 8644 	bne.w	13252 <__printf_buffer+0x1022>
   125ca:	4638      	mov	r0, r7
   125cc:	fa5f f388 	uxtb.w	r3, r8
   125d0:	9711      	str	r7, [sp, #68]	@ 0x44
   125d2:	9318      	str	r3, [sp, #96]	@ 0x60
   125d4:	2320      	movs	r3, #32
   125d6:	971d      	str	r7, [sp, #116]	@ 0x74
   125d8:	930e      	str	r3, [sp, #56]	@ 0x38
   125da:	f20d 43bc 	addw	r3, sp, #1212	@ 0x4bc
   125de:	9715      	str	r7, [sp, #84]	@ 0x54
   125e0:	9316      	str	r3, [sp, #88]	@ 0x58
   125e2:	f1b9 0f00 	cmp.w	r9, #0
   125e6:	f040 837a 	bne.w	12cde <__printf_buffer+0xaae>
   125ea:	9b13      	ldr	r3, [sp, #76]	@ 0x4c
   125ec:	2b00      	cmp	r3, #0
   125ee:	f000 8371 	beq.w	12cd4 <__printf_buffer+0xaa4>
   125f2:	9915      	ldr	r1, [sp, #84]	@ 0x54
   125f4:	a82a      	add	r0, sp, #168	@ 0xa8
   125f6:	f016 fd05 	bl	29004 <__grouping_iterator_init_none>
   125fa:	4bb5      	ldr	r3, [pc, #724]	@ (128d0 <__printf_buffer+0x6a0>)
   125fc:	9a17      	ldr	r2, [sp, #92]	@ 0x5c
   125fe:	447b      	add	r3, pc
   12600:	681b      	ldr	r3, [r3, #0]
   12602:	9916      	ldr	r1, [sp, #88]	@ 0x58
   12604:	58d0      	ldr	r0, [r2, r3]
   12606:	f20d 42bc 	addw	r2, sp, #1212	@ 0x4bc
   1260a:	f019 f8a5 	bl	2b758 <__translated_number_width>
   1260e:	f8dd 904c 	ldr.w	r9, [sp, #76]	@ 0x4c
   12612:	4680      	mov	r8, r0
   12614:	9b0a      	ldr	r3, [sp, #40]	@ 0x28
   12616:	4283      	cmp	r3, r0
   12618:	f300 835a 	bgt.w	12cd0 <__printf_buffer+0xaa0>
   1261c:	2f00      	cmp	r7, #0
   1261e:	f000 83ae 	beq.w	12d7e <__printf_buffer+0xb4e>
   12622:	9f10      	ldr	r7, [sp, #64]	@ 0x40
   12624:	9b14      	ldr	r3, [sp, #80]	@ 0x50
   12626:	2b08      	cmp	r3, #8
   12628:	bf14      	ite	ne
   1262a:	2700      	movne	r7, #0
   1262c:	f007 0701 	andeq.w	r7, r7, #1
   12630:	9b0d      	ldr	r3, [sp, #52]	@ 0x34
   12632:	2b00      	cmp	r3, #0
   12634:	f040 830a 	bne.w	12c4c <__printf_buffer+0xa1c>
   12638:	9b0c      	ldr	r3, [sp, #48]	@ 0x30
   1263a:	9a11      	ldr	r2, [sp, #68]	@ 0x44
   1263c:	1a9a      	subs	r2, r3, r2
   1263e:	9b18      	ldr	r3, [sp, #96]	@ 0x60
   12640:	eba2 0208 	sub.w	r2, r2, r8
   12644:	ea1a 0a03 	ands.w	sl, sl, r3
   12648:	d13f      	bne.n	126ca <__printf_buffer+0x49a>
   1264a:	b107      	cbz	r7, 1264e <__printf_buffer+0x41e>
   1264c:	3a01      	subs	r2, #1
   1264e:	9912      	ldr	r1, [sp, #72]	@ 0x48
   12650:	9b09      	ldr	r3, [sp, #36]	@ 0x24
   12652:	430b      	orrs	r3, r1
   12654:	990f      	ldr	r1, [sp, #60]	@ 0x3c
   12656:	430b      	orrs	r3, r1
   12658:	f040 839d 	bne.w	12d96 <__printf_buffer+0xb66>
   1265c:	9b0e      	ldr	r3, [sp, #56]	@ 0x38
   1265e:	2b20      	cmp	r3, #32
   12660:	f000 848e 	beq.w	12f80 <__printf_buffer+0xd50>
   12664:	9b11      	ldr	r3, [sp, #68]	@ 0x44
   12666:	4413      	add	r3, r2
   12668:	9311      	str	r3, [sp, #68]	@ 0x44
   1266a:	f1ba 0f00 	cmp.w	sl, #0
   1266e:	f040 83af 	bne.w	12dd0 <__printf_buffer+0xba0>
   12672:	9b11      	ldr	r3, [sp, #68]	@ 0x44
   12674:	2b00      	cmp	r3, #0
   12676:	dc0f      	bgt.n	12698 <__printf_buffer+0x468>
   12678:	b9af      	cbnz	r7, 126a6 <__printf_buffer+0x476>
   1267a:	f1b9 0f00 	cmp.w	r9, #0
   1267e:	d01e      	beq.n	126be <__printf_buffer+0x48e>
   12680:	9b13      	ldr	r3, [sp, #76]	@ 0x4c
   12682:	a92a      	add	r1, sp, #168	@ 0xa8
   12684:	9301      	str	r3, [sp, #4]
   12686:	4628      	mov	r0, r5
   12688:	9b19      	ldr	r3, [sp, #100]	@ 0x64
   1268a:	9300      	str	r3, [sp, #0]
   1268c:	f20d 43bc 	addw	r3, sp, #1212	@ 0x4bc
   12690:	9a16      	ldr	r2, [sp, #88]	@ 0x58
   12692:	f7fe fcd5 	bl	11040 <group_number>
   12696:	e6a6      	b.n	123e6 <__printf_buffer+0x1b6>
   12698:	461a      	mov	r2, r3
   1269a:	2130      	movs	r1, #48	@ 0x30
   1269c:	4628      	mov	r0, r5
   1269e:	f016 fd59 	bl	29154 <__printf_buffer_pad_1>
   126a2:	2f00      	cmp	r7, #0
   126a4:	d0e9      	beq.n	1267a <__printf_buffer+0x44a>
   126a6:	e9d5 3201 	ldrd	r3, r2, [r5, #4]
   126aa:	4293      	cmp	r3, r2
   126ac:	f000 8685 	beq.w	133ba <__printf_buffer+0x118a>
   126b0:	1c5a      	adds	r2, r3, #1
   126b2:	606a      	str	r2, [r5, #4]
   126b4:	2230      	movs	r2, #48	@ 0x30
   126b6:	701a      	strb	r2, [r3, #0]
   126b8:	f1b9 0f00 	cmp.w	r9, #0
   126bc:	d1e0      	bne.n	12680 <__printf_buffer+0x450>
   126be:	e9dd 2115 	ldrd	r2, r1, [sp, #84]	@ 0x54
   126c2:	4628      	mov	r0, r5
   126c4:	f016 fe6e 	bl	293a4 <__printf_buffer_write>
   126c8:	e68d      	b.n	123e6 <__printf_buffer+0x1b6>
   126ca:	9914      	ldr	r1, [sp, #80]	@ 0x50
   126cc:	2304      	movs	r3, #4
   126ce:	f2c0 0301 	movt	r3, #1
   126d2:	40cb      	lsrs	r3, r1
   126d4:	07d9      	lsls	r1, r3, #31
   126d6:	bf48      	it	mi
   126d8:	3a02      	submi	r2, #2
   126da:	e7b6      	b.n	1264a <__printf_buffer+0x41a>
   126dc:	465a      	mov	r2, fp
   126de:	f04f 0e00 	mov.w	lr, #0
   126e2:	2102      	movs	r1, #2
   126e4:	e9cd e113 	strd	lr, r1, [sp, #76]	@ 0x4c
   126e8:	9909      	ldr	r1, [sp, #36]	@ 0x24
   126ea:	2900      	cmp	r1, #0
   126ec:	d03a      	beq.n	12764 <__printf_buffer+0x534>
   126ee:	f10b 0307 	add.w	r3, fp, #7
   126f2:	2200      	movs	r2, #0
   126f4:	f023 0307 	bic.w	r3, r3, #7
   126f8:	920f      	str	r2, [sp, #60]	@ 0x3c
   126fa:	469b      	mov	fp, r3
   126fc:	9212      	str	r2, [sp, #72]	@ 0x48
   126fe:	9209      	str	r2, [sp, #36]	@ 0x24
   12700:	f8d3 a004 	ldr.w	sl, [r3, #4]
   12704:	f85b 7b08 	ldr.w	r7, [fp], #8
   12708:	9a0a      	ldr	r2, [sp, #40]	@ 0x28
   1270a:	2a00      	cmp	r2, #0
   1270c:	f2c0 841e 	blt.w	12f4c <__printf_buffer+0xd1c>
   12710:	f040 8378 	bne.w	12e04 <__printf_buffer+0xbd4>
   12714:	ea57 030a 	orrs.w	r3, r7, sl
   12718:	f040 8374 	bne.w	12e04 <__printf_buffer+0xbd4>
   1271c:	9b10      	ldr	r3, [sp, #64]	@ 0x40
   1271e:	9914      	ldr	r1, [sp, #80]	@ 0x50
   12720:	f003 0801 	and.w	r8, r3, #1
   12724:	2908      	cmp	r1, #8
   12726:	bf14      	ite	ne
   12728:	2300      	movne	r3, #0
   1272a:	f003 0301 	andeq.w	r3, r3, #1
   1272e:	2b00      	cmp	r3, #0
   12730:	f000 85db 	beq.w	132ea <__printf_buffer+0x10ba>
   12734:	2330      	movs	r3, #48	@ 0x30
   12736:	2001      	movs	r0, #1
   12738:	f88d 34bb 	strb.w	r3, [sp, #1211]	@ 0x4bb
   1273c:	f04f 33ff 	mov.w	r3, #4294967295	@ 0xffffffff
   12740:	9015      	str	r0, [sp, #84]	@ 0x54
   12742:	931d      	str	r3, [sp, #116]	@ 0x74
   12744:	2320      	movs	r3, #32
   12746:	9211      	str	r2, [sp, #68]	@ 0x44
   12748:	930e      	str	r3, [sp, #56]	@ 0x38
   1274a:	f20d 43bb 	addw	r3, sp, #1211	@ 0x4bb
   1274e:	9316      	str	r3, [sp, #88]	@ 0x58
   12750:	e375      	b.n	12e3e <__printf_buffer+0xc0e>
   12752:	2110      	movs	r1, #16
   12754:	f04f 0a00 	mov.w	sl, #0
   12758:	e9cd a113 	strd	sl, r1, [sp, #76]	@ 0x4c
   1275c:	465a      	mov	r2, fp
   1275e:	9909      	ldr	r1, [sp, #36]	@ 0x24
   12760:	2900      	cmp	r1, #0
   12762:	d1c4      	bne.n	126ee <__printf_buffer+0x4be>
   12764:	f10b 0b04 	add.w	fp, fp, #4
   12768:	f1b8 0f00 	cmp.w	r8, #0
   1276c:	f000 8392 	beq.w	12e94 <__printf_buffer+0xc64>
   12770:	9b09      	ldr	r3, [sp, #36]	@ 0x24
   12772:	930f      	str	r3, [sp, #60]	@ 0x3c
   12774:	9312      	str	r3, [sp, #72]	@ 0x48
   12776:	9b0a      	ldr	r3, [sp, #40]	@ 0x28
   12778:	7817      	ldrb	r7, [r2, #0]
   1277a:	2b00      	cmp	r3, #0
   1277c:	f6bf af13 	bge.w	125a6 <__printf_buffer+0x376>
   12780:	2301      	movs	r3, #1
   12782:	930a      	str	r3, [sp, #40]	@ 0x28
   12784:	e2ca      	b.n	12d1c <__printf_buffer+0xaec>
   12786:	2000      	movs	r0, #0
   12788:	2108      	movs	r1, #8
   1278a:	465a      	mov	r2, fp
   1278c:	e9cd 0113 	strd	r0, r1, [sp, #76]	@ 0x4c
   12790:	e7aa      	b.n	126e8 <__printf_buffer+0x4b8>
   12792:	210a      	movs	r1, #10
   12794:	465a      	mov	r2, fp
   12796:	f8cd a04c 	str.w	sl, [sp, #76]	@ 0x4c
   1279a:	9114      	str	r1, [sp, #80]	@ 0x50
   1279c:	e7a4      	b.n	126e8 <__printf_buffer+0x4b8>
   1279e:	9a09      	ldr	r2, [sp, #36]	@ 0x24
   127a0:	2a00      	cmp	r2, #0
   127a2:	f000 8441 	beq.w	13028 <__printf_buffer+0xdf8>
   127a6:	f10b 0307 	add.w	r3, fp, #7
   127aa:	220a      	movs	r2, #10
   127ac:	f023 0307 	bic.w	r3, r3, #7
   127b0:	9214      	str	r2, [sp, #80]	@ 0x50
   127b2:	469b      	mov	fp, r3
   127b4:	f8cd a04c 	str.w	sl, [sp, #76]	@ 0x4c
   127b8:	685a      	ldr	r2, [r3, #4]
   127ba:	f85b 7b08 	ldr.w	r7, [fp], #8
   127be:	17d3      	asrs	r3, r2, #31
   127c0:	405f      	eors	r7, r3
   127c2:	ea83 0a02 	eor.w	sl, r3, r2
   127c6:	1aff      	subs	r7, r7, r3
   127c8:	ea4f 72d2 	mov.w	r2, r2, lsr #31
   127cc:	eb6a 0303 	sbc.w	r3, sl, r3
   127d0:	9209      	str	r2, [sp, #36]	@ 0x24
   127d2:	469a      	mov	sl, r3
   127d4:	e798      	b.n	12708 <__printf_buffer+0x4d8>
   127d6:	e9d5 3201 	ldrd	r3, r2, [r5, #4]
   127da:	4293      	cmp	r3, r2
   127dc:	f000 85e7 	beq.w	133ae <__printf_buffer+0x117e>
   127e0:	1c5a      	adds	r2, r3, #1
   127e2:	606a      	str	r2, [r5, #4]
   127e4:	2225      	movs	r2, #37	@ 0x25
   127e6:	701a      	strb	r2, [r3, #0]
   127e8:	e5fd      	b.n	123e6 <__printf_buffer+0x1b6>
   127ea:	aa2a      	add	r2, sp, #168	@ 0xa8
   127ec:	920c      	str	r2, [sp, #48]	@ 0x30
   127ee:	4610      	mov	r0, r2
   127f0:	6832      	ldr	r2, [r6, #0]
   127f2:	1c51      	adds	r1, r2, #1
   127f4:	6031      	str	r1, [r6, #0]
   127f6:	6001      	str	r1, [r0, #0]
   127f8:	7854      	ldrb	r4, [r2, #1]
   127fa:	f1a4 0230 	sub.w	r2, r4, #48	@ 0x30
   127fe:	2a09      	cmp	r2, #9
   12800:	f240 8483 	bls.w	1310a <__printf_buffer+0xeda>
   12804:	465a      	mov	r2, fp
   12806:	f852 1b04 	ldr.w	r1, [r2], #4
   1280a:	910c      	str	r1, [sp, #48]	@ 0x30
   1280c:	2900      	cmp	r1, #0
   1280e:	da05      	bge.n	1281c <__printf_buffer+0x5ec>
   12810:	4249      	negs	r1, r1
   12812:	2020      	movs	r0, #32
   12814:	910c      	str	r1, [sp, #48]	@ 0x30
   12816:	2101      	movs	r1, #1
   12818:	e9cd 100d 	strd	r1, r0, [sp, #52]	@ 0x34
   1281c:	f1a4 0120 	sub.w	r1, r4, #32
   12820:	4693      	mov	fp, r2
   12822:	295a      	cmp	r1, #90	@ 0x5a
   12824:	f240 8484 	bls.w	13130 <__printf_buffer+0xf00>
   12828:	4a2a      	ldr	r2, [pc, #168]	@ (128d4 <__printf_buffer+0x6a4>)
   1282a:	447a      	add	r2, pc
   1282c:	f042 0201 	orr.w	r2, r2, #1
   12830:	4710      	bx	r2
   12832:	6832      	ldr	r2, [r6, #0]
   12834:	1c51      	adds	r1, r2, #1
   12836:	6031      	str	r1, [r6, #0]
   12838:	7854      	ldrb	r4, [r2, #1]
   1283a:	f1a4 0220 	sub.w	r2, r4, #32
   1283e:	2a5a      	cmp	r2, #90	@ 0x5a
   12840:	f200 83bb 	bhi.w	12fba <__printf_buffer+0xd8a>
   12844:	4a24      	ldr	r2, [pc, #144]	@ (128d8 <__printf_buffer+0x6a8>)
   12846:	f04f 0a01 	mov.w	sl, #1
   1284a:	447a      	add	r2, pc
   1284c:	4422      	add	r2, r4
   1284e:	f812 1c20 	ldrb.w	r1, [r2, #-32]
   12852:	4a22      	ldr	r2, [pc, #136]	@ (128dc <__printf_buffer+0x6ac>)
   12854:	447a      	add	r2, pc
   12856:	eb02 0281 	add.w	r2, r2, r1, lsl #2
   1285a:	f8d2 2080 	ldr.w	r2, [r2, #128]	@ 0x80
   1285e:	f042 0201 	orr.w	r2, r2, #1
   12862:	4710      	bx	r2
   12864:	9a23      	ldr	r2, [sp, #140]	@ 0x8c
   12866:	3201      	adds	r2, #1
   12868:	f000 851b 	beq.w	132a2 <__printf_buffer+0x1072>
   1286c:	6832      	ldr	r2, [r6, #0]
   1286e:	1c51      	adds	r1, r2, #1
   12870:	6031      	str	r1, [r6, #0]
   12872:	7854      	ldrb	r4, [r2, #1]
   12874:	f1a4 0220 	sub.w	r2, r4, #32
   12878:	2a5a      	cmp	r2, #90	@ 0x5a
   1287a:	f200 8402 	bhi.w	13082 <__printf_buffer+0xe52>
   1287e:	4a18      	ldr	r2, [pc, #96]	@ (128e0 <__printf_buffer+0x6b0>)
   12880:	f04f 0901 	mov.w	r9, #1
   12884:	447a      	add	r2, pc
   12886:	4422      	add	r2, r4
   12888:	f812 1c20 	ldrb.w	r1, [r2, #-32]
   1288c:	4a15      	ldr	r2, [pc, #84]	@ (128e4 <__printf_buffer+0x6b4>)
   1288e:	447a      	add	r2, pc
   12890:	eb02 0281 	add.w	r2, r2, r1, lsl #2
   12894:	f8d2 2080 	ldr.w	r2, [r2, #128]	@ 0x80
   12898:	f042 0201 	orr.w	r2, r2, #1
   1289c:	4710      	bx	r2
   1289e:	6832      	ldr	r2, [r6, #0]
   128a0:	1c51      	adds	r1, r2, #1
   128a2:	6031      	str	r1, [r6, #0]
   128a4:	7854      	ldrb	r4, [r2, #1]
   128a6:	f1a4 0220 	sub.w	r2, r4, #32
   128aa:	2a5a      	cmp	r2, #90	@ 0x5a
   128ac:	f200 837e 	bhi.w	12fac <__printf_buffer+0xd7c>
   128b0:	4a0d      	ldr	r2, [pc, #52]	@ (128e8 <__printf_buffer+0x6b8>)
   128b2:	2700      	movs	r7, #0
   128b4:	9709      	str	r7, [sp, #36]	@ 0x24
   128b6:	447a      	add	r2, pc
   128b8:	4422      	add	r2, r4
   128ba:	f812 1c20 	ldrb.w	r1, [r2, #-32]
   128be:	4a0b      	ldr	r2, [pc, #44]	@ (128ec <__printf_buffer+0x6bc>)
   128c0:	447a      	add	r2, pc
   128c2:	eb02 0281 	add.w	r2, r2, r1, lsl #2
   128c6:	f8d2 2280 	ldr.w	r2, [r2, #640]	@ 0x280
   128ca:	f042 0201 	orr.w	r2, r2, #1
   128ce:	4710      	bx	r2
   128d0:	0004fbb2 	.word	0x0004fbb2
   128d4:	fffffab0 	.word	0xfffffab0
   128d8:	0003b0ea 	.word	0x0003b0ea
   128dc:	0004d590 	.word	0x0004d590
   128e0:	0003b0b0 	.word	0x0003b0b0
   128e4:	0004d556 	.word	0x0004d556
   128e8:	0003b07e 	.word	0x0003b07e
   128ec:	0004d524 	.word	0x0004d524
   128f0:	6832      	ldr	r2, [r6, #0]
   128f2:	1c51      	adds	r1, r2, #1
   128f4:	6031      	str	r1, [r6, #0]
   128f6:	7854      	ldrb	r4, [r2, #1]
   128f8:	f1a4 0220 	sub.w	r2, r4, #32
   128fc:	2a5a      	cmp	r2, #90	@ 0x5a
   128fe:	f200 8382 	bhi.w	13006 <__printf_buffer+0xdd6>
   12902:	4ab9      	ldr	r2, [pc, #740]	@ (12be8 <__printf_buffer+0x9b8>)
   12904:	2700      	movs	r7, #0
   12906:	9709      	str	r7, [sp, #36]	@ 0x24
   12908:	447a      	add	r2, pc
   1290a:	4422      	add	r2, r4
   1290c:	f812 1c20 	ldrb.w	r1, [r2, #-32]
   12910:	4ab6      	ldr	r2, [pc, #728]	@ (12bec <__printf_buffer+0x9bc>)
   12912:	447a      	add	r2, pc
   12914:	eb02 0281 	add.w	r2, r2, r1, lsl #2
   12918:	f8d2 2280 	ldr.w	r2, [r2, #640]	@ 0x280
   1291c:	f042 0201 	orr.w	r2, r2, #1
   12920:	4710      	bx	r2
   12922:	6832      	ldr	r2, [r6, #0]
   12924:	1c51      	adds	r1, r2, #1
   12926:	6031      	str	r1, [r6, #0]
   12928:	7851      	ldrb	r1, [r2, #1]
   1292a:	2966      	cmp	r1, #102	@ 0x66
   1292c:	f000 8462 	beq.w	131f4 <__printf_buffer+0xfc4>
   12930:	3930      	subs	r1, #48	@ 0x30
   12932:	2909      	cmp	r1, #9
   12934:	f240 852a 	bls.w	1338c <__printf_buffer+0x115c>
   12938:	4baa      	ldr	r3, [pc, #680]	@ (12be4 <__printf_buffer+0x9b4>)
   1293a:	2100      	movs	r1, #0
   1293c:	2216      	movs	r2, #22
   1293e:	447b      	add	r3, pc
   12940:	681b      	ldr	r3, [r3, #0]
   12942:	61a9      	str	r1, [r5, #24]
   12944:	9917      	ldr	r1, [sp, #92]	@ 0x5c
   12946:	50ca      	str	r2, [r1, r3]
   12948:	e4d3      	b.n	122f2 <__printf_buffer+0xc2>
   1294a:	6832      	ldr	r2, [r6, #0]
   1294c:	1c51      	adds	r1, r2, #1
   1294e:	6031      	str	r1, [r6, #0]
   12950:	7854      	ldrb	r4, [r2, #1]
   12952:	f1a4 0220 	sub.w	r2, r4, #32
   12956:	2a5a      	cmp	r2, #90	@ 0x5a
   12958:	f200 8346 	bhi.w	12fe8 <__printf_buffer+0xdb8>
   1295c:	4aa4      	ldr	r2, [pc, #656]	@ (12bf0 <__printf_buffer+0x9c0>)
   1295e:	2701      	movs	r7, #1
   12960:	9709      	str	r7, [sp, #36]	@ 0x24
   12962:	447a      	add	r2, pc
   12964:	4422      	add	r2, r4
   12966:	f812 1c20 	ldrb.w	r1, [r2, #-32]
   1296a:	4aa2      	ldr	r2, [pc, #648]	@ (12bf4 <__printf_buffer+0x9c4>)
   1296c:	447a      	add	r2, pc
   1296e:	eb02 0281 	add.w	r2, r2, r1, lsl #2
   12972:	f8d2 2280 	ldr.w	r2, [r2, #640]	@ 0x280
   12976:	f042 0201 	orr.w	r2, r2, #1
   1297a:	4710      	bx	r2
   1297c:	6832      	ldr	r2, [r6, #0]
   1297e:	1c51      	adds	r1, r2, #1
   12980:	6031      	str	r1, [r6, #0]
   12982:	7854      	ldrb	r4, [r2, #1]
   12984:	f1a4 0220 	sub.w	r2, r4, #32
   12988:	2a5a      	cmp	r2, #90	@ 0x5a
   1298a:	f200 8394 	bhi.w	130b6 <__printf_buffer+0xe86>
   1298e:	4a9a      	ldr	r2, [pc, #616]	@ (12bf8 <__printf_buffer+0x9c8>)
   12990:	447a      	add	r2, pc
   12992:	4422      	add	r2, r4
   12994:	f812 1c20 	ldrb.w	r1, [r2, #-32]
   12998:	4a98      	ldr	r2, [pc, #608]	@ (12bfc <__printf_buffer+0x9cc>)
   1299a:	447a      	add	r2, pc
   1299c:	eb02 0281 	add.w	r2, r2, r1, lsl #2
   129a0:	2101      	movs	r1, #1
   129a2:	9110      	str	r1, [sp, #64]	@ 0x40
   129a4:	f8d2 2080 	ldr.w	r2, [r2, #128]	@ 0x80
   129a8:	f042 0201 	orr.w	r2, r2, #1
   129ac:	4710      	bx	r2
   129ae:	6833      	ldr	r3, [r6, #0]
   129b0:	1c5a      	adds	r2, r3, #1
   129b2:	6032      	str	r2, [r6, #0]
   129b4:	785c      	ldrb	r4, [r3, #1]
   129b6:	f1a4 0320 	sub.w	r3, r4, #32
   129ba:	2b5a      	cmp	r3, #90	@ 0x5a
   129bc:	f200 832b 	bhi.w	13016 <__printf_buffer+0xde6>
   129c0:	4b8f      	ldr	r3, [pc, #572]	@ (12c00 <__printf_buffer+0x9d0>)
   129c2:	f04f 0801 	mov.w	r8, #1
   129c6:	447b      	add	r3, pc
   129c8:	4423      	add	r3, r4
   129ca:	f813 2c20 	ldrb.w	r2, [r3, #-32]
   129ce:	4b8d      	ldr	r3, [pc, #564]	@ (12c04 <__printf_buffer+0x9d4>)
   129d0:	447b      	add	r3, pc
   129d2:	eb03 0382 	add.w	r3, r3, r2, lsl #2
   129d6:	f8d3 2280 	ldr.w	r2, [r3, #640]	@ 0x280
   129da:	2300      	movs	r3, #0
   129dc:	f042 0201 	orr.w	r2, r2, #1
   129e0:	4710      	bx	r2
   129e2:	465b      	mov	r3, fp
   129e4:	f087 0701 	eor.w	r7, r7, #1
   129e8:	f853 8b04 	ldr.w	r8, [r3], #4
   129ec:	469b      	mov	fp, r3
   129ee:	f1b8 0f00 	cmp.w	r8, #0
   129f2:	f47f ad86 	bne.w	12502 <__printf_buffer+0x2d2>
   129f6:	990a      	ldr	r1, [sp, #40]	@ 0x28
   129f8:	2905      	cmp	r1, #5
   129fa:	bfd4      	ite	le
   129fc:	2200      	movle	r2, #0
   129fe:	2201      	movgt	r2, #1
   12a00:	f1b1 3fff 	cmp.w	r1, #4294967295	@ 0xffffffff
   12a04:	bf08      	it	eq
   12a06:	f042 0201 	orreq.w	r2, r2, #1
   12a0a:	2a00      	cmp	r2, #0
   12a0c:	f040 8462 	bne.w	132d4 <__printf_buffer+0x10a4>
   12a10:	4644      	mov	r4, r8
   12a12:	f8df 81f4 	ldr.w	r8, [pc, #500]	@ 12c08 <__printf_buffer+0x9d8>
   12a16:	44f8      	add	r8, pc
   12a18:	e584      	b.n	12524 <__printf_buffer+0x2f4>
   12a1a:	6832      	ldr	r2, [r6, #0]
   12a1c:	1c51      	adds	r1, r2, #1
   12a1e:	6031      	str	r1, [r6, #0]
   12a20:	7854      	ldrb	r4, [r2, #1]
   12a22:	f1a4 0220 	sub.w	r2, r4, #32
   12a26:	2a5a      	cmp	r2, #90	@ 0x5a
   12a28:	f200 82d6 	bhi.w	12fd8 <__printf_buffer+0xda8>
   12a2c:	4a77      	ldr	r2, [pc, #476]	@ (12c0c <__printf_buffer+0x9dc>)
   12a2e:	2701      	movs	r7, #1
   12a30:	9709      	str	r7, [sp, #36]	@ 0x24
   12a32:	447a      	add	r2, pc
   12a34:	4422      	add	r2, r4
   12a36:	f812 1c20 	ldrb.w	r1, [r2, #-32]
   12a3a:	4a75      	ldr	r2, [pc, #468]	@ (12c10 <__printf_buffer+0x9e0>)
   12a3c:	447a      	add	r2, pc
   12a3e:	eb02 0281 	add.w	r2, r2, r1, lsl #2
   12a42:	f8d2 2280 	ldr.w	r2, [r2, #640]	@ 0x280
   12a46:	f042 0201 	orr.w	r2, r2, #1
   12a4a:	4710      	bx	r2
   12a4c:	9a0d      	ldr	r2, [sp, #52]	@ 0x34
   12a4e:	2a00      	cmp	r2, #0
   12a50:	9a0e      	ldr	r2, [sp, #56]	@ 0x38
   12a52:	bf08      	it	eq
   12a54:	2230      	moveq	r2, #48	@ 0x30
   12a56:	920e      	str	r2, [sp, #56]	@ 0x38
   12a58:	6832      	ldr	r2, [r6, #0]
   12a5a:	1c51      	adds	r1, r2, #1
   12a5c:	6031      	str	r1, [r6, #0]
   12a5e:	7854      	ldrb	r4, [r2, #1]
   12a60:	f1a4 0220 	sub.w	r2, r4, #32
   12a64:	2a5a      	cmp	r2, #90	@ 0x5a
   12a66:	f200 8339 	bhi.w	130dc <__printf_buffer+0xeac>
   12a6a:	4a6a      	ldr	r2, [pc, #424]	@ (12c14 <__printf_buffer+0x9e4>)
   12a6c:	447a      	add	r2, pc
   12a6e:	4422      	add	r2, r4
   12a70:	f812 1c20 	ldrb.w	r1, [r2, #-32]
   12a74:	4a68      	ldr	r2, [pc, #416]	@ (12c18 <__printf_buffer+0x9e8>)
   12a76:	447a      	add	r2, pc
   12a78:	eb02 0281 	add.w	r2, r2, r1, lsl #2
   12a7c:	f8d2 2080 	ldr.w	r2, [r2, #128]	@ 0x80
   12a80:	f042 0201 	orr.w	r2, r2, #1
   12a84:	4710      	bx	r2
   12a86:	6832      	ldr	r2, [r6, #0]
   12a88:	1c51      	adds	r1, r2, #1
   12a8a:	6031      	str	r1, [r6, #0]
   12a8c:	7854      	ldrb	r4, [r2, #1]
   12a8e:	2c2a      	cmp	r4, #42	@ 0x2a
   12a90:	f000 835c 	beq.w	1314c <__printf_buffer+0xf1c>
   12a94:	f1a4 0230 	sub.w	r2, r4, #48	@ 0x30
   12a98:	2a09      	cmp	r2, #9
   12a9a:	bf84      	itt	hi
   12a9c:	2200      	movhi	r2, #0
   12a9e:	920a      	strhi	r2, [sp, #40]	@ 0x28
   12aa0:	f240 8467 	bls.w	13372 <__printf_buffer+0x1142>
   12aa4:	f1a4 0220 	sub.w	r2, r4, #32
   12aa8:	2a5a      	cmp	r2, #90	@ 0x5a
   12aaa:	f240 8370 	bls.w	1318e <__printf_buffer+0xf5e>
   12aae:	4a5b      	ldr	r2, [pc, #364]	@ (12c1c <__printf_buffer+0x9ec>)
   12ab0:	447a      	add	r2, pc
   12ab2:	f042 0201 	orr.w	r2, r2, #1
   12ab6:	4710      	bx	r2
   12ab8:	6832      	ldr	r2, [r6, #0]
   12aba:	1c51      	adds	r1, r2, #1
   12abc:	6031      	str	r1, [r6, #0]
   12abe:	7854      	ldrb	r4, [r2, #1]
   12ac0:	f1a4 0220 	sub.w	r2, r4, #32
   12ac4:	2a5a      	cmp	r2, #90	@ 0x5a
   12ac6:	f200 82cb 	bhi.w	13060 <__printf_buffer+0xe30>
   12aca:	4a55      	ldr	r2, [pc, #340]	@ (12c20 <__printf_buffer+0x9f0>)
   12acc:	447a      	add	r2, pc
   12ace:	4422      	add	r2, r4
   12ad0:	f812 1c20 	ldrb.w	r1, [r2, #-32]
   12ad4:	4a53      	ldr	r2, [pc, #332]	@ (12c24 <__printf_buffer+0x9f4>)
   12ad6:	447a      	add	r2, pc
   12ad8:	eb02 0281 	add.w	r2, r2, r1, lsl #2
   12adc:	2101      	movs	r1, #1
   12ade:	910f      	str	r1, [sp, #60]	@ 0x3c
   12ae0:	f8d2 2080 	ldr.w	r2, [r2, #128]	@ 0x80
   12ae4:	f042 0201 	orr.w	r2, r2, #1
   12ae8:	4710      	bx	r2
   12aea:	6832      	ldr	r2, [r6, #0]
   12aec:	1c51      	adds	r1, r2, #1
   12aee:	6031      	str	r1, [r6, #0]
   12af0:	7854      	ldrb	r4, [r2, #1]
   12af2:	f1a4 0220 	sub.w	r2, r4, #32
   12af6:	2a5a      	cmp	r2, #90	@ 0x5a
   12af8:	f240 82cb 	bls.w	13092 <__printf_buffer+0xe62>
   12afc:	4a4a      	ldr	r2, [pc, #296]	@ (12c28 <__printf_buffer+0x9f8>)
   12afe:	2101      	movs	r1, #1
   12b00:	9112      	str	r1, [sp, #72]	@ 0x48
   12b02:	447a      	add	r2, pc
   12b04:	f042 0201 	orr.w	r2, r2, #1
   12b08:	4710      	bx	r2
   12b0a:	6832      	ldr	r2, [r6, #0]
   12b0c:	1c51      	adds	r1, r2, #1
   12b0e:	6031      	str	r1, [r6, #0]
   12b10:	7854      	ldrb	r4, [r2, #1]
   12b12:	f1a4 0220 	sub.w	r2, r4, #32
   12b16:	2a5a      	cmp	r2, #90	@ 0x5a
   12b18:	f200 826e 	bhi.w	12ff8 <__printf_buffer+0xdc8>
   12b1c:	4a43      	ldr	r2, [pc, #268]	@ (12c2c <__printf_buffer+0x9fc>)
   12b1e:	2701      	movs	r7, #1
   12b20:	447a      	add	r2, pc
   12b22:	4422      	add	r2, r4
   12b24:	f812 1c20 	ldrb.w	r1, [r2, #-32]
   12b28:	4a41      	ldr	r2, [pc, #260]	@ (12c30 <__printf_buffer+0xa00>)
   12b2a:	447a      	add	r2, pc
   12b2c:	eb02 0281 	add.w	r2, r2, r1, lsl #2
   12b30:	f8d2 2300 	ldr.w	r2, [r2, #768]	@ 0x300
   12b34:	f042 0201 	orr.w	r2, r2, #1
   12b38:	4710      	bx	r2
   12b3a:	6832      	ldr	r2, [r6, #0]
   12b3c:	1c51      	adds	r1, r2, #1
   12b3e:	6031      	str	r1, [r6, #0]
   12b40:	7854      	ldrb	r4, [r2, #1]
   12b42:	f1a4 0220 	sub.w	r2, r4, #32
   12b46:	2a5a      	cmp	r2, #90	@ 0x5a
   12b48:	f200 82bd 	bhi.w	130c6 <__printf_buffer+0xe96>
   12b4c:	4a39      	ldr	r2, [pc, #228]	@ (12c34 <__printf_buffer+0xa04>)
   12b4e:	2020      	movs	r0, #32
   12b50:	447a      	add	r2, pc
   12b52:	4422      	add	r2, r4
   12b54:	f812 1c20 	ldrb.w	r1, [r2, #-32]
   12b58:	4a37      	ldr	r2, [pc, #220]	@ (12c38 <__printf_buffer+0xa08>)
   12b5a:	447a      	add	r2, pc
   12b5c:	eb02 0281 	add.w	r2, r2, r1, lsl #2
   12b60:	2101      	movs	r1, #1
   12b62:	e9cd 100d 	strd	r1, r0, [sp, #52]	@ 0x34
   12b66:	f8d2 2080 	ldr.w	r2, [r2, #128]	@ 0x80
   12b6a:	f042 0201 	orr.w	r2, r2, #1
   12b6e:	4710      	bx	r2
   12b70:	6832      	ldr	r2, [r6, #0]
   12b72:	1c51      	adds	r1, r2, #1
   12b74:	6031      	str	r1, [r6, #0]
   12b76:	7854      	ldrb	r4, [r2, #1]
   12b78:	f1a4 0220 	sub.w	r2, r4, #32
   12b7c:	2a5a      	cmp	r2, #90	@ 0x5a
   12b7e:	f200 82b3 	bhi.w	130e8 <__printf_buffer+0xeb8>
   12b82:	4a2e      	ldr	r2, [pc, #184]	@ (12c3c <__printf_buffer+0xa0c>)
   12b84:	2301      	movs	r3, #1
   12b86:	447a      	add	r2, pc
   12b88:	4422      	add	r2, r4
   12b8a:	f812 1c20 	ldrb.w	r1, [r2, #-32]
   12b8e:	4a2c      	ldr	r2, [pc, #176]	@ (12c40 <__printf_buffer+0xa10>)
   12b90:	447a      	add	r2, pc
   12b92:	eb02 0281 	add.w	r2, r2, r1, lsl #2
   12b96:	f8d2 2200 	ldr.w	r2, [r2, #512]	@ 0x200
   12b9a:	f042 0201 	orr.w	r2, r2, #1
   12b9e:	4710      	bx	r2
   12ba0:	4630      	mov	r0, r6
   12ba2:	9311      	str	r3, [sp, #68]	@ 0x44
   12ba4:	f7fe f968 	bl	10e78 <read_int>
   12ba8:	4603      	mov	r3, r0
   12baa:	3301      	adds	r3, #1
   12bac:	900c      	str	r0, [sp, #48]	@ 0x30
   12bae:	9b11      	ldr	r3, [sp, #68]	@ 0x44
   12bb0:	f000 8439 	beq.w	13426 <__printf_buffer+0x11f6>
   12bb4:	6832      	ldr	r2, [r6, #0]
   12bb6:	7814      	ldrb	r4, [r2, #0]
   12bb8:	2c24      	cmp	r4, #36	@ 0x24
   12bba:	f000 8153 	beq.w	12e64 <__printf_buffer+0xc34>
   12bbe:	f1a4 0220 	sub.w	r2, r4, #32
   12bc2:	2a5a      	cmp	r2, #90	@ 0x5a
   12bc4:	f200 8311 	bhi.w	131ea <__printf_buffer+0xfba>
   12bc8:	4a1e      	ldr	r2, [pc, #120]	@ (12c44 <__printf_buffer+0xa14>)
   12bca:	447a      	add	r2, pc
   12bcc:	4422      	add	r2, r4
   12bce:	f812 1c20 	ldrb.w	r1, [r2, #-32]
   12bd2:	4a1d      	ldr	r2, [pc, #116]	@ (12c48 <__printf_buffer+0xa18>)
   12bd4:	447a      	add	r2, pc
   12bd6:	eb02 0281 	add.w	r2, r2, r1, lsl #2
   12bda:	f8d2 2100 	ldr.w	r2, [r2, #256]	@ 0x100
   12bde:	f042 0201 	orr.w	r2, r2, #1
   12be2:	4710      	bx	r2
   12be4:	0004f7de 	.word	0x0004f7de
   12be8:	0003b02c 	.word	0x0003b02c
   12bec:	0004d4d2 	.word	0x0004d4d2
   12bf0:	0003afd2 	.word	0x0003afd2
   12bf4:	0004d478 	.word	0x0004d478
   12bf8:	0003afa4 	.word	0x0003afa4
   12bfc:	0004d44a 	.word	0x0004d44a
   12c00:	0003af6e 	.word	0x0003af6e
   12c04:	0004d414 	.word	0x0004d414
   12c08:	0003aa2a 	.word	0x0003aa2a
   12c0c:	0003af02 	.word	0x0003af02
   12c10:	0004d3a8 	.word	0x0004d3a8
   12c14:	0003aec8 	.word	0x0003aec8
   12c18:	0004d36e 	.word	0x0004d36e
   12c1c:	fffff82a 	.word	0xfffff82a
   12c20:	0003ae68 	.word	0x0003ae68
   12c24:	0004d30e 	.word	0x0004d30e
   12c28:	fffff7d8 	.word	0xfffff7d8
   12c2c:	0003ae14 	.word	0x0003ae14
   12c30:	0004d2ba 	.word	0x0004d2ba
   12c34:	0003ade4 	.word	0x0003ade4
   12c38:	0004d28a 	.word	0x0004d28a
   12c3c:	0003adae 	.word	0x0003adae
   12c40:	0004d254 	.word	0x0004d254
   12c44:	0003ad6a 	.word	0x0003ad6a
   12c48:	0004d210 	.word	0x0004d210
   12c4c:	9b09      	ldr	r3, [sp, #36]	@ 0x24
   12c4e:	2b00      	cmp	r3, #0
   12c50:	f040 812d 	bne.w	12eae <__printf_buffer+0xc7e>
   12c54:	9b0f      	ldr	r3, [sp, #60]	@ 0x3c
   12c56:	2b00      	cmp	r3, #0
   12c58:	f040 8162 	bne.w	12f20 <__printf_buffer+0xcf0>
   12c5c:	9b12      	ldr	r3, [sp, #72]	@ 0x48
   12c5e:	2b00      	cmp	r3, #0
   12c60:	f040 82b9 	bne.w	131d6 <__printf_buffer+0xfa6>
   12c64:	9b18      	ldr	r3, [sp, #96]	@ 0x60
   12c66:	ea1a 0f03 	tst.w	sl, r3
   12c6a:	f040 8131 	bne.w	12ed0 <__printf_buffer+0xca0>
   12c6e:	9b11      	ldr	r3, [sp, #68]	@ 0x44
   12c70:	4498      	add	r8, r3
   12c72:	9b1d      	ldr	r3, [sp, #116]	@ 0x74
   12c74:	2f00      	cmp	r7, #0
   12c76:	d06f      	beq.n	12d58 <__printf_buffer+0xb28>
   12c78:	2b00      	cmp	r3, #0
   12c7a:	dd04      	ble.n	12c86 <__printf_buffer+0xa56>
   12c7c:	9a11      	ldr	r2, [sp, #68]	@ 0x44
   12c7e:	2130      	movs	r1, #48	@ 0x30
   12c80:	4628      	mov	r0, r5
   12c82:	f016 fa67 	bl	29154 <__printf_buffer_pad_1>
   12c86:	e9d5 3201 	ldrd	r3, r2, [r5, #4]
   12c8a:	4293      	cmp	r3, r2
   12c8c:	f000 839b 	beq.w	133c6 <__printf_buffer+0x1196>
   12c90:	1c5a      	adds	r2, r3, #1
   12c92:	606a      	str	r2, [r5, #4]
   12c94:	2230      	movs	r2, #48	@ 0x30
   12c96:	701a      	strb	r2, [r3, #0]
   12c98:	9b0c      	ldr	r3, [sp, #48]	@ 0x30
   12c9a:	3b01      	subs	r3, #1
   12c9c:	eba3 0408 	sub.w	r4, r3, r8
   12ca0:	f1b9 0f00 	cmp.w	r9, #0
   12ca4:	d065      	beq.n	12d72 <__printf_buffer+0xb42>
   12ca6:	9b13      	ldr	r3, [sp, #76]	@ 0x4c
   12ca8:	a92a      	add	r1, sp, #168	@ 0xa8
   12caa:	9301      	str	r3, [sp, #4]
   12cac:	4628      	mov	r0, r5
   12cae:	9b19      	ldr	r3, [sp, #100]	@ 0x64
   12cb0:	9300      	str	r3, [sp, #0]
   12cb2:	f20d 43bc 	addw	r3, sp, #1212	@ 0x4bc
   12cb6:	9a16      	ldr	r2, [sp, #88]	@ 0x58
   12cb8:	f7fe f9c2 	bl	11040 <group_number>
   12cbc:	2c00      	cmp	r4, #0
   12cbe:	f77f ab92 	ble.w	123e6 <__printf_buffer+0x1b6>
   12cc2:	4622      	mov	r2, r4
   12cc4:	2120      	movs	r1, #32
   12cc6:	4628      	mov	r0, r5
   12cc8:	f016 fa44 	bl	29154 <__printf_buffer_pad_1>
   12ccc:	f7ff bb8b 	b.w	123e6 <__printf_buffer+0x1b6>
   12cd0:	2700      	movs	r7, #0
   12cd2:	e4ad      	b.n	12630 <__printf_buffer+0x400>
   12cd4:	f8dd 8054 	ldr.w	r8, [sp, #84]	@ 0x54
   12cd8:	f8dd 904c 	ldr.w	r9, [sp, #76]	@ 0x4c
   12cdc:	e49a      	b.n	12614 <__printf_buffer+0x3e4>
   12cde:	4bba      	ldr	r3, [pc, #744]	@ (12fc8 <__printf_buffer+0xd98>)
   12ce0:	f10d 09a8 	add.w	r9, sp, #168	@ 0xa8
   12ce4:	9a17      	ldr	r2, [sp, #92]	@ 0x5c
   12ce6:	2101      	movs	r1, #1
   12ce8:	447b      	add	r3, pc
   12cea:	681b      	ldr	r3, [r3, #0]
   12cec:	f8dd 8054 	ldr.w	r8, [sp, #84]	@ 0x54
   12cf0:	4648      	mov	r0, r9
   12cf2:	58d2      	ldr	r2, [r2, r3]
   12cf4:	4643      	mov	r3, r8
   12cf6:	f016 f98f 	bl	29018 <__grouping_iterator_init>
   12cfa:	9a13      	ldr	r2, [sp, #76]	@ 0x4c
   12cfc:	2a00      	cmp	r2, #0
   12cfe:	f040 8119 	bne.w	12f34 <__printf_buffer+0xd04>
   12d02:	9819      	ldr	r0, [sp, #100]	@ 0x64
   12d04:	f005 ffbc 	bl	18c80 <strlen>
   12d08:	f8d9 3010 	ldr.w	r3, [r9, #16]
   12d0c:	f04f 0901 	mov.w	r9, #1
   12d10:	fb03 8800 	mla	r8, r3, r0, r8
   12d14:	4640      	mov	r0, r8
   12d16:	e47d      	b.n	12614 <__printf_buffer+0x3e4>
   12d18:	2320      	movs	r3, #32
   12d1a:	930e      	str	r3, [sp, #56]	@ 0x38
   12d1c:	f1a4 0358 	sub.w	r3, r4, #88	@ 0x58
   12d20:	f20d 48bc 	addw	r8, sp, #1212	@ 0x4bc
   12d24:	fab3 f383 	clz	r3, r3
   12d28:	9a14      	ldr	r2, [sp, #80]	@ 0x50
   12d2a:	4641      	mov	r1, r8
   12d2c:	4638      	mov	r0, r7
   12d2e:	095b      	lsrs	r3, r3, #5
   12d30:	f015 ff14 	bl	28b5c <_itoa_word>
   12d34:	9b0a      	ldr	r3, [sp, #40]	@ 0x28
   12d36:	9016      	str	r0, [sp, #88]	@ 0x58
   12d38:	eba8 0000 	sub.w	r0, r8, r0
   12d3c:	1a1b      	subs	r3, r3, r0
   12d3e:	9a10      	ldr	r2, [sp, #64]	@ 0x40
   12d40:	f1b7 0a00 	subs.w	sl, r7, #0
   12d44:	931d      	str	r3, [sp, #116]	@ 0x74
   12d46:	bf18      	it	ne
   12d48:	f04f 0a01 	movne.w	sl, #1
   12d4c:	ea23 73e3 	bic.w	r3, r3, r3, asr #31
   12d50:	9015      	str	r0, [sp, #84]	@ 0x54
   12d52:	9218      	str	r2, [sp, #96]	@ 0x60
   12d54:	9311      	str	r3, [sp, #68]	@ 0x44
   12d56:	e444      	b.n	125e2 <__printf_buffer+0x3b2>
   12d58:	2b00      	cmp	r3, #0
   12d5a:	dd04      	ble.n	12d66 <__printf_buffer+0xb36>
   12d5c:	9a11      	ldr	r2, [sp, #68]	@ 0x44
   12d5e:	2130      	movs	r1, #48	@ 0x30
   12d60:	4628      	mov	r0, r5
   12d62:	f016 f9f7 	bl	29154 <__printf_buffer_pad_1>
   12d66:	9b0c      	ldr	r3, [sp, #48]	@ 0x30
   12d68:	eba3 0408 	sub.w	r4, r3, r8
   12d6c:	f1b9 0f00 	cmp.w	r9, #0
   12d70:	d199      	bne.n	12ca6 <__printf_buffer+0xa76>
   12d72:	e9dd 2115 	ldrd	r2, r1, [sp, #84]	@ 0x54
   12d76:	4628      	mov	r0, r5
   12d78:	f016 fb14 	bl	293a4 <__printf_buffer_write>
   12d7c:	e79e      	b.n	12cbc <__printf_buffer+0xa8c>
   12d7e:	9b0d      	ldr	r3, [sp, #52]	@ 0x34
   12d80:	2b00      	cmp	r3, #0
   12d82:	f47f af63 	bne.w	12c4c <__printf_buffer+0xa1c>
   12d86:	9b0c      	ldr	r3, [sp, #48]	@ 0x30
   12d88:	9a11      	ldr	r2, [sp, #68]	@ 0x44
   12d8a:	9f0d      	ldr	r7, [sp, #52]	@ 0x34
   12d8c:	1a9a      	subs	r2, r3, r2
   12d8e:	eba2 0208 	sub.w	r2, r2, r8
   12d92:	46ba      	mov	sl, r7
   12d94:	e45b      	b.n	1264e <__printf_buffer+0x41e>
   12d96:	9b0e      	ldr	r3, [sp, #56]	@ 0x38
   12d98:	3a01      	subs	r2, #1
   12d9a:	2b20      	cmp	r3, #32
   12d9c:	f000 80e8 	beq.w	12f70 <__printf_buffer+0xd40>
   12da0:	9b11      	ldr	r3, [sp, #68]	@ 0x44
   12da2:	4413      	add	r3, r2
   12da4:	9311      	str	r3, [sp, #68]	@ 0x44
   12da6:	9b09      	ldr	r3, [sp, #36]	@ 0x24
   12da8:	2b00      	cmp	r3, #0
   12daa:	f040 80ae 	bne.w	12f0a <__printf_buffer+0xcda>
   12dae:	9b0f      	ldr	r3, [sp, #60]	@ 0x3c
   12db0:	2b00      	cmp	r3, #0
   12db2:	f000 80ec 	beq.w	12f8e <__printf_buffer+0xd5e>
   12db6:	e9d5 3201 	ldrd	r3, r2, [r5, #4]
   12dba:	4293      	cmp	r3, r2
   12dbc:	f000 8322 	beq.w	13404 <__printf_buffer+0x11d4>
   12dc0:	1c5a      	adds	r2, r3, #1
   12dc2:	606a      	str	r2, [r5, #4]
   12dc4:	222b      	movs	r2, #43	@ 0x2b
   12dc6:	701a      	strb	r2, [r3, #0]
   12dc8:	f1ba 0f00 	cmp.w	sl, #0
   12dcc:	f43f ac51 	beq.w	12672 <__printf_buffer+0x442>
   12dd0:	9a14      	ldr	r2, [sp, #80]	@ 0x50
   12dd2:	2304      	movs	r3, #4
   12dd4:	f2c0 0301 	movt	r3, #1
   12dd8:	40d3      	lsrs	r3, r2
   12dda:	07da      	lsls	r2, r3, #31
   12ddc:	f57f ac49 	bpl.w	12672 <__printf_buffer+0x442>
   12de0:	e9d5 3201 	ldrd	r3, r2, [r5, #4]
   12de4:	4293      	cmp	r3, r2
   12de6:	f000 833e 	beq.w	13466 <__printf_buffer+0x1236>
   12dea:	1c5a      	adds	r2, r3, #1
   12dec:	606a      	str	r2, [r5, #4]
   12dee:	2230      	movs	r2, #48	@ 0x30
   12df0:	701a      	strb	r2, [r3, #0]
   12df2:	e9d5 3201 	ldrd	r3, r2, [r5, #4]
   12df6:	4293      	cmp	r3, r2
   12df8:	f000 832f 	beq.w	1345a <__printf_buffer+0x122a>
   12dfc:	1c5a      	adds	r2, r3, #1
   12dfe:	606a      	str	r2, [r5, #4]
   12e00:	701c      	strb	r4, [r3, #0]
   12e02:	e436      	b.n	12672 <__printf_buffer+0x442>
   12e04:	2320      	movs	r3, #32
   12e06:	930e      	str	r3, [sp, #56]	@ 0x38
   12e08:	f1a4 0358 	sub.w	r3, r4, #88	@ 0x58
   12e0c:	f20d 48bc 	addw	r8, sp, #1212	@ 0x4bc
   12e10:	fab3 f383 	clz	r3, r3
   12e14:	4642      	mov	r2, r8
   12e16:	4638      	mov	r0, r7
   12e18:	4651      	mov	r1, sl
   12e1a:	095b      	lsrs	r3, r3, #5
   12e1c:	9300      	str	r3, [sp, #0]
   12e1e:	9b14      	ldr	r3, [sp, #80]	@ 0x50
   12e20:	f015 fee6 	bl	28bf0 <_itoa>
   12e24:	9b10      	ldr	r3, [sp, #64]	@ 0x40
   12e26:	9016      	str	r0, [sp, #88]	@ 0x58
   12e28:	eba8 0000 	sub.w	r0, r8, r0
   12e2c:	f003 0801 	and.w	r8, r3, #1
   12e30:	9b0a      	ldr	r3, [sp, #40]	@ 0x28
   12e32:	9015      	str	r0, [sp, #84]	@ 0x54
   12e34:	1a1b      	subs	r3, r3, r0
   12e36:	931d      	str	r3, [sp, #116]	@ 0x74
   12e38:	ea23 73e3 	bic.w	r3, r3, r3, asr #31
   12e3c:	9311      	str	r3, [sp, #68]	@ 0x44
   12e3e:	ea57 0a0a 	orrs.w	sl, r7, sl
   12e42:	fa5f f388 	uxtb.w	r3, r8
   12e46:	bf14      	ite	ne
   12e48:	f04f 0a01 	movne.w	sl, #1
   12e4c:	f04f 0a00 	moveq.w	sl, #0
   12e50:	4657      	mov	r7, sl
   12e52:	9318      	str	r3, [sp, #96]	@ 0x60
   12e54:	f7ff bbc5 	b.w	125e2 <__printf_buffer+0x3b2>
   12e58:	9b19      	ldr	r3, [sp, #100]	@ 0x64
   12e5a:	9322      	str	r3, [sp, #136]	@ 0x88
   12e5c:	930b      	str	r3, [sp, #44]	@ 0x2c
   12e5e:	f04f 33ff 	mov.w	r3, #4294967295	@ 0xffffffff
   12e62:	9323      	str	r3, [sp, #140]	@ 0x8c
   12e64:	9b1a      	ldr	r3, [sp, #104]	@ 0x68
   12e66:	4628      	mov	r0, r5
   12e68:	9307      	str	r3, [sp, #28]
   12e6a:	9b19      	ldr	r3, [sp, #100]	@ 0x64
   12e6c:	9306      	str	r3, [sp, #24]
   12e6e:	9b23      	ldr	r3, [sp, #140]	@ 0x8c
   12e70:	9305      	str	r3, [sp, #20]
   12e72:	9b1e      	ldr	r3, [sp, #120]	@ 0x78
   12e74:	9304      	str	r3, [sp, #16]
   12e76:	9b20      	ldr	r3, [sp, #128]	@ 0x80
   12e78:	9c21      	ldr	r4, [sp, #132]	@ 0x84
   12e7a:	9302      	str	r3, [sp, #8]
   12e7c:	9b0b      	ldr	r3, [sp, #44]	@ 0x2c
   12e7e:	9301      	str	r3, [sp, #4]
   12e80:	465b      	mov	r3, fp
   12e82:	9400      	str	r4, [sp, #0]
   12e84:	ac35      	add	r4, sp, #212	@ 0xd4
   12e86:	9a22      	ldr	r2, [sp, #136]	@ 0x88
   12e88:	991f      	ldr	r1, [sp, #124]	@ 0x7c
   12e8a:	9403      	str	r4, [sp, #12]
   12e8c:	f7fe f92e 	bl	110ec <printf_positional>
   12e90:	f7ff ba2f 	b.w	122f2 <__printf_buffer+0xc2>
   12e94:	2b00      	cmp	r3, #0
   12e96:	f040 80dd 	bne.w	13054 <__printf_buffer+0xe24>
   12e9a:	9b09      	ldr	r3, [sp, #36]	@ 0x24
   12e9c:	6817      	ldr	r7, [r2, #0]
   12e9e:	930f      	str	r3, [sp, #60]	@ 0x3c
   12ea0:	9312      	str	r3, [sp, #72]	@ 0x48
   12ea2:	f7ff bb7c 	b.w	1259e <__printf_buffer+0x36e>
   12ea6:	f017 fc95 	bl	2a7d4 <__printf_fp_l_buffer>
   12eaa:	f7ff ba9c 	b.w	123e6 <__printf_buffer+0x1b6>
   12eae:	e9d5 3201 	ldrd	r3, r2, [r5, #4]
   12eb2:	4293      	cmp	r3, r2
   12eb4:	f000 8292 	beq.w	133dc <__printf_buffer+0x11ac>
   12eb8:	1c5a      	adds	r2, r3, #1
   12eba:	606a      	str	r2, [r5, #4]
   12ebc:	222d      	movs	r2, #45	@ 0x2d
   12ebe:	701a      	strb	r2, [r3, #0]
   12ec0:	9b0c      	ldr	r3, [sp, #48]	@ 0x30
   12ec2:	3b01      	subs	r3, #1
   12ec4:	930c      	str	r3, [sp, #48]	@ 0x30
   12ec6:	9b18      	ldr	r3, [sp, #96]	@ 0x60
   12ec8:	ea1a 0f03 	tst.w	sl, r3
   12ecc:	f43f aecf 	beq.w	12c6e <__printf_buffer+0xa3e>
   12ed0:	9a14      	ldr	r2, [sp, #80]	@ 0x50
   12ed2:	2304      	movs	r3, #4
   12ed4:	f2c0 0301 	movt	r3, #1
   12ed8:	40d3      	lsrs	r3, r2
   12eda:	07db      	lsls	r3, r3, #31
   12edc:	f57f aec7 	bpl.w	12c6e <__printf_buffer+0xa3e>
   12ee0:	e9d5 3201 	ldrd	r3, r2, [r5, #4]
   12ee4:	4293      	cmp	r3, r2
   12ee6:	f000 82c8 	beq.w	1347a <__printf_buffer+0x124a>
   12eea:	1c5a      	adds	r2, r3, #1
   12eec:	606a      	str	r2, [r5, #4]
   12eee:	2230      	movs	r2, #48	@ 0x30
   12ef0:	701a      	strb	r2, [r3, #0]
   12ef2:	e9d5 3201 	ldrd	r3, r2, [r5, #4]
   12ef6:	4293      	cmp	r3, r2
   12ef8:	f000 82ba 	beq.w	13470 <__printf_buffer+0x1240>
   12efc:	1c5a      	adds	r2, r3, #1
   12efe:	606a      	str	r2, [r5, #4]
   12f00:	701c      	strb	r4, [r3, #0]
   12f02:	9b0c      	ldr	r3, [sp, #48]	@ 0x30
   12f04:	3b02      	subs	r3, #2
   12f06:	930c      	str	r3, [sp, #48]	@ 0x30
   12f08:	e6b1      	b.n	12c6e <__printf_buffer+0xa3e>
   12f0a:	e9d5 3201 	ldrd	r3, r2, [r5, #4]
   12f0e:	4293      	cmp	r3, r2
   12f10:	f000 825e 	beq.w	133d0 <__printf_buffer+0x11a0>
   12f14:	1c5a      	adds	r2, r3, #1
   12f16:	606a      	str	r2, [r5, #4]
   12f18:	222d      	movs	r2, #45	@ 0x2d
   12f1a:	701a      	strb	r2, [r3, #0]
   12f1c:	f7ff bba5 	b.w	1266a <__printf_buffer+0x43a>
   12f20:	e9d5 3201 	ldrd	r3, r2, [r5, #4]
   12f24:	4293      	cmp	r3, r2
   12f26:	f000 8268 	beq.w	133fa <__printf_buffer+0x11ca>
   12f2a:	1c5a      	adds	r2, r3, #1
   12f2c:	606a      	str	r2, [r5, #4]
   12f2e:	222b      	movs	r2, #43	@ 0x2b
   12f30:	701a      	strb	r2, [r3, #0]
   12f32:	e7c5      	b.n	12ec0 <__printf_buffer+0xc90>
   12f34:	4b25      	ldr	r3, [pc, #148]	@ (12fcc <__printf_buffer+0xd9c>)
   12f36:	9a17      	ldr	r2, [sp, #92]	@ 0x5c
   12f38:	447b      	add	r3, pc
   12f3a:	681b      	ldr	r3, [r3, #0]
   12f3c:	9916      	ldr	r1, [sp, #88]	@ 0x58
   12f3e:	58d0      	ldr	r0, [r2, r3]
   12f40:	f20d 42bc 	addw	r2, sp, #1212	@ 0x4bc
   12f44:	f018 fc08 	bl	2b758 <__translated_number_width>
   12f48:	4680      	mov	r8, r0
   12f4a:	e6da      	b.n	12d02 <__printf_buffer+0xad2>
   12f4c:	2301      	movs	r3, #1
   12f4e:	930a      	str	r3, [sp, #40]	@ 0x28
   12f50:	e75a      	b.n	12e08 <__printf_buffer+0xbd8>
   12f52:	4622      	mov	r2, r4
   12f54:	4641      	mov	r1, r8
   12f56:	4628      	mov	r0, r5
   12f58:	f016 fa24 	bl	293a4 <__printf_buffer_write>
   12f5c:	2f00      	cmp	r7, #0
   12f5e:	f43f aa42 	beq.w	123e6 <__printf_buffer+0x1b6>
   12f62:	463a      	mov	r2, r7
   12f64:	2120      	movs	r1, #32
   12f66:	4628      	mov	r0, r5
   12f68:	f016 f8f4 	bl	29154 <__printf_buffer_pad_1>
   12f6c:	f7ff ba3b 	b.w	123e6 <__printf_buffer+0x1b6>
   12f70:	2a00      	cmp	r2, #0
   12f72:	f77f af18 	ble.w	12da6 <__printf_buffer+0xb76>
   12f76:	990e      	ldr	r1, [sp, #56]	@ 0x38
   12f78:	4628      	mov	r0, r5
   12f7a:	f016 f8eb 	bl	29154 <__printf_buffer_pad_1>
   12f7e:	e712      	b.n	12da6 <__printf_buffer+0xb76>
   12f80:	2a00      	cmp	r2, #0
   12f82:	f77f ab72 	ble.w	1266a <__printf_buffer+0x43a>
   12f86:	990e      	ldr	r1, [sp, #56]	@ 0x38
   12f88:	4628      	mov	r0, r5
   12f8a:	f016 f8e3 	bl	29154 <__printf_buffer_pad_1>
   12f8e:	9b12      	ldr	r3, [sp, #72]	@ 0x48
   12f90:	2b00      	cmp	r3, #0
   12f92:	f43f ab6a 	beq.w	1266a <__printf_buffer+0x43a>
   12f96:	e9d5 3201 	ldrd	r3, r2, [r5, #4]
   12f9a:	4293      	cmp	r3, r2
   12f9c:	f000 8252 	beq.w	13444 <__printf_buffer+0x1214>
   12fa0:	1c5a      	adds	r2, r3, #1
   12fa2:	606a      	str	r2, [r5, #4]
   12fa4:	2220      	movs	r2, #32
   12fa6:	701a      	strb	r2, [r3, #0]
   12fa8:	f7ff bb5f 	b.w	1266a <__printf_buffer+0x43a>
   12fac:	4a08      	ldr	r2, [pc, #32]	@ (12fd0 <__printf_buffer+0xda0>)
   12fae:	2700      	movs	r7, #0
   12fb0:	9709      	str	r7, [sp, #36]	@ 0x24
   12fb2:	447a      	add	r2, pc
   12fb4:	f042 0201 	orr.w	r2, r2, #1
   12fb8:	4710      	bx	r2
   12fba:	4a06      	ldr	r2, [pc, #24]	@ (12fd4 <__printf_buffer+0xda4>)
   12fbc:	f04f 0a01 	mov.w	sl, #1
   12fc0:	447a      	add	r2, pc
   12fc2:	f042 0201 	orr.w	r2, r2, #1
   12fc6:	4710      	bx	r2
   12fc8:	0004f4c8 	.word	0x0004f4c8
   12fcc:	0004f278 	.word	0x0004f278
   12fd0:	fffff328 	.word	0xfffff328
   12fd4:	fffff31a 	.word	0xfffff31a
   12fd8:	f8df 24f4 	ldr.w	r2, [pc, #1268]	@ 134d0 <__printf_buffer+0x12a0>
   12fdc:	2701      	movs	r7, #1
   12fde:	9709      	str	r7, [sp, #36]	@ 0x24
   12fe0:	447a      	add	r2, pc
   12fe2:	f042 0201 	orr.w	r2, r2, #1
   12fe6:	4710      	bx	r2
   12fe8:	f8df 24e8 	ldr.w	r2, [pc, #1256]	@ 134d4 <__printf_buffer+0x12a4>
   12fec:	2701      	movs	r7, #1
   12fee:	9709      	str	r7, [sp, #36]	@ 0x24
   12ff0:	447a      	add	r2, pc
   12ff2:	f042 0201 	orr.w	r2, r2, #1
   12ff6:	4710      	bx	r2
   12ff8:	f8df 24dc 	ldr.w	r2, [pc, #1244]	@ 134d8 <__printf_buffer+0x12a8>
   12ffc:	2701      	movs	r7, #1
   12ffe:	447a      	add	r2, pc
   13000:	f042 0201 	orr.w	r2, r2, #1
   13004:	4710      	bx	r2
   13006:	f8df 24d4 	ldr.w	r2, [pc, #1236]	@ 134dc <__printf_buffer+0x12ac>
   1300a:	2700      	movs	r7, #0
   1300c:	9709      	str	r7, [sp, #36]	@ 0x24
   1300e:	447a      	add	r2, pc
   13010:	f042 0201 	orr.w	r2, r2, #1
   13014:	4710      	bx	r2
   13016:	f8df 24c8 	ldr.w	r2, [pc, #1224]	@ 134e0 <__printf_buffer+0x12b0>
   1301a:	f04f 0801 	mov.w	r8, #1
   1301e:	2300      	movs	r3, #0
   13020:	447a      	add	r2, pc
   13022:	f042 0201 	orr.w	r2, r2, #1
   13026:	4710      	bx	r2
   13028:	465a      	mov	r2, fp
   1302a:	f852 7b04 	ldr.w	r7, [r2], #4
   1302e:	f1b8 0f00 	cmp.w	r8, #0
   13032:	f040 8158 	bne.w	132e6 <__printf_buffer+0x10b6>
   13036:	b103      	cbz	r3, 1303a <__printf_buffer+0xe0a>
   13038:	b23f      	sxth	r7, r7
   1303a:	2f00      	cmp	r7, #0
   1303c:	ea4f 73d7 	mov.w	r3, r7, lsr #31
   13040:	4693      	mov	fp, r2
   13042:	9309      	str	r3, [sp, #36]	@ 0x24
   13044:	bfb8      	it	lt
   13046:	427f      	neglt	r7, r7
   13048:	230a      	movs	r3, #10
   1304a:	f8cd a04c 	str.w	sl, [sp, #76]	@ 0x4c
   1304e:	9314      	str	r3, [sp, #80]	@ 0x50
   13050:	f7ff baa5 	b.w	1259e <__printf_buffer+0x36e>
   13054:	9b09      	ldr	r3, [sp, #36]	@ 0x24
   13056:	8817      	ldrh	r7, [r2, #0]
   13058:	930f      	str	r3, [sp, #60]	@ 0x3c
   1305a:	9312      	str	r3, [sp, #72]	@ 0x48
   1305c:	f7ff ba9f 	b.w	1259e <__printf_buffer+0x36e>
   13060:	f8df 2480 	ldr.w	r2, [pc, #1152]	@ 134e4 <__printf_buffer+0x12b4>
   13064:	2101      	movs	r1, #1
   13066:	910f      	str	r1, [sp, #60]	@ 0x3c
   13068:	447a      	add	r2, pc
   1306a:	f042 0201 	orr.w	r2, r2, #1
   1306e:	4710      	bx	r2
   13070:	981e      	ldr	r0, [sp, #120]	@ 0x78
   13072:	f44f 727a 	mov.w	r2, #1000	@ 0x3e8
   13076:	a935      	add	r1, sp, #212	@ 0xd4
   13078:	f005 fd4e 	bl	18b18 <__strerror_r>
   1307c:	4680      	mov	r8, r0
   1307e:	f7ff ba3b 	b.w	124f8 <__printf_buffer+0x2c8>
   13082:	f8df 2464 	ldr.w	r2, [pc, #1124]	@ 134e8 <__printf_buffer+0x12b8>
   13086:	f04f 0901 	mov.w	r9, #1
   1308a:	447a      	add	r2, pc
   1308c:	f042 0201 	orr.w	r2, r2, #1
   13090:	4710      	bx	r2
   13092:	f8df 2458 	ldr.w	r2, [pc, #1112]	@ 134ec <__printf_buffer+0x12bc>
   13096:	447a      	add	r2, pc
   13098:	4422      	add	r2, r4
   1309a:	f812 1c20 	ldrb.w	r1, [r2, #-32]
   1309e:	f8df 2450 	ldr.w	r2, [pc, #1104]	@ 134f0 <__printf_buffer+0x12c0>
   130a2:	447a      	add	r2, pc
   130a4:	eb02 0281 	add.w	r2, r2, r1, lsl #2
   130a8:	2101      	movs	r1, #1
   130aa:	9112      	str	r1, [sp, #72]	@ 0x48
   130ac:	f8d2 2080 	ldr.w	r2, [r2, #128]	@ 0x80
   130b0:	f042 0201 	orr.w	r2, r2, #1
   130b4:	4710      	bx	r2
   130b6:	f8df 243c 	ldr.w	r2, [pc, #1084]	@ 134f4 <__printf_buffer+0x12c4>
   130ba:	2101      	movs	r1, #1
   130bc:	9110      	str	r1, [sp, #64]	@ 0x40
   130be:	447a      	add	r2, pc
   130c0:	f042 0201 	orr.w	r2, r2, #1
   130c4:	4710      	bx	r2
   130c6:	f8df 2430 	ldr.w	r2, [pc, #1072]	@ 134f8 <__printf_buffer+0x12c8>
   130ca:	2101      	movs	r1, #1
   130cc:	f04f 0c20 	mov.w	ip, #32
   130d0:	e9cd 1c0d 	strd	r1, ip, [sp, #52]	@ 0x34
   130d4:	447a      	add	r2, pc
   130d6:	f042 0201 	orr.w	r2, r2, #1
   130da:	4710      	bx	r2
   130dc:	f8df 241c 	ldr.w	r2, [pc, #1052]	@ 134fc <__printf_buffer+0x12cc>
   130e0:	447a      	add	r2, pc
   130e2:	f042 0201 	orr.w	r2, r2, #1
   130e6:	4710      	bx	r2
   130e8:	f8df 2414 	ldr.w	r2, [pc, #1044]	@ 13500 <__printf_buffer+0x12d0>
   130ec:	2301      	movs	r3, #1
   130ee:	447a      	add	r2, pc
   130f0:	f042 0201 	orr.w	r2, r2, #1
   130f4:	4710      	bx	r2
   130f6:	f1b8 0f00 	cmp.w	r8, #0
   130fa:	f040 80f1 	bne.w	132e0 <__printf_buffer+0x10b0>
   130fe:	2b00      	cmp	r3, #0
   13100:	f040 8178 	bne.w	133f4 <__printf_buffer+0x11c4>
   13104:	6038      	str	r0, [r7, #0]
   13106:	f7ff b96e 	b.w	123e6 <__printf_buffer+0x1b6>
   1310a:	9311      	str	r3, [sp, #68]	@ 0x44
   1310c:	f7fd feb4 	bl	10e78 <read_int>
   13110:	1c43      	adds	r3, r0, #1
   13112:	9b11      	ldr	r3, [sp, #68]	@ 0x44
   13114:	f000 81b9 	beq.w	1348a <__printf_buffer+0x125a>
   13118:	2800      	cmp	r0, #0
   1311a:	f040 80ff 	bne.w	1331c <__printf_buffer+0x10ec>
   1311e:	465a      	mov	r2, fp
   13120:	f852 1b04 	ldr.w	r1, [r2], #4
   13124:	910c      	str	r1, [sp, #48]	@ 0x30
   13126:	2900      	cmp	r1, #0
   13128:	bfa8      	it	ge
   1312a:	4693      	movge	fp, r2
   1312c:	f2c0 80fd 	blt.w	1332a <__printf_buffer+0x10fa>
   13130:	4af4      	ldr	r2, [pc, #976]	@ (13504 <__printf_buffer+0x12d4>)
   13132:	447a      	add	r2, pc
   13134:	4422      	add	r2, r4
   13136:	f812 1c20 	ldrb.w	r1, [r2, #-32]
   1313a:	4af3      	ldr	r2, [pc, #972]	@ (13508 <__printf_buffer+0x12d8>)
   1313c:	447a      	add	r2, pc
   1313e:	eb02 0281 	add.w	r2, r2, r1, lsl #2
   13142:	f8d2 2100 	ldr.w	r2, [r2, #256]	@ 0x100
   13146:	f042 0201 	orr.w	r2, r2, #1
   1314a:	4710      	bx	r2
   1314c:	a92a      	add	r1, sp, #168	@ 0xa8
   1314e:	910a      	str	r1, [sp, #40]	@ 0x28
   13150:	4608      	mov	r0, r1
   13152:	1c91      	adds	r1, r2, #2
   13154:	6031      	str	r1, [r6, #0]
   13156:	6001      	str	r1, [r0, #0]
   13158:	7894      	ldrb	r4, [r2, #2]
   1315a:	f1a4 0230 	sub.w	r2, r4, #48	@ 0x30
   1315e:	2a09      	cmp	r2, #9
   13160:	f200 80ce 	bhi.w	13300 <__printf_buffer+0x10d0>
   13164:	9311      	str	r3, [sp, #68]	@ 0x44
   13166:	f7fd fe87 	bl	10e78 <read_int>
   1316a:	1c43      	adds	r3, r0, #1
   1316c:	9b11      	ldr	r3, [sp, #68]	@ 0x44
   1316e:	f000 8196 	beq.w	1349e <__printf_buffer+0x126e>
   13172:	b128      	cbz	r0, 13180 <__printf_buffer+0xf50>
   13174:	9a0a      	ldr	r2, [sp, #40]	@ 0x28
   13176:	6812      	ldr	r2, [r2, #0]
   13178:	7812      	ldrb	r2, [r2, #0]
   1317a:	2a24      	cmp	r2, #36	@ 0x24
   1317c:	f43f ae72 	beq.w	12e64 <__printf_buffer+0xc34>
   13180:	465a      	mov	r2, fp
   13182:	f852 1b04 	ldr.w	r1, [r2], #4
   13186:	4693      	mov	fp, r2
   13188:	ea41 72e1 	orr.w	r2, r1, r1, asr #31
   1318c:	920a      	str	r2, [sp, #40]	@ 0x28
   1318e:	4adf      	ldr	r2, [pc, #892]	@ (1350c <__printf_buffer+0x12dc>)
   13190:	447a      	add	r2, pc
   13192:	4422      	add	r2, r4
   13194:	f812 1c20 	ldrb.w	r1, [r2, #-32]
   13198:	4add      	ldr	r2, [pc, #884]	@ (13510 <__printf_buffer+0x12e0>)
   1319a:	447a      	add	r2, pc
   1319c:	eb02 0281 	add.w	r2, r2, r1, lsl #2
   131a0:	f8d2 2180 	ldr.w	r2, [r2, #384]	@ 0x180
   131a4:	f042 0201 	orr.w	r2, r2, #1
   131a8:	4710      	bx	r2
   131aa:	9a0a      	ldr	r2, [sp, #40]	@ 0x28
   131ac:	469b      	mov	fp, r3
   131ae:	2a05      	cmp	r2, #5
   131b0:	bfb8      	it	lt
   131b2:	2205      	movlt	r2, #5
   131b4:	2c53      	cmp	r4, #83	@ 0x53
   131b6:	920a      	str	r2, [sp, #40]	@ 0x28
   131b8:	f040 80ab 	bne.w	13312 <__printf_buffer+0x10e2>
   131bc:	f8df 8354 	ldr.w	r8, [pc, #852]	@ 13514 <__printf_buffer+0x12e4>
   131c0:	44f8      	add	r8, pc
   131c2:	9b0d      	ldr	r3, [sp, #52]	@ 0x34
   131c4:	4641      	mov	r1, r8
   131c6:	9300      	str	r3, [sp, #0]
   131c8:	4628      	mov	r0, r5
   131ca:	9b0c      	ldr	r3, [sp, #48]	@ 0x30
   131cc:	9a0a      	ldr	r2, [sp, #40]	@ 0x28
   131ce:	f7fd fe7d 	bl	10ecc <outstring_converted_wide_string>
   131d2:	f7ff b908 	b.w	123e6 <__printf_buffer+0x1b6>
   131d6:	e9d5 3201 	ldrd	r3, r2, [r5, #4]
   131da:	4293      	cmp	r3, r2
   131dc:	f000 812d 	beq.w	1343a <__printf_buffer+0x120a>
   131e0:	1c5a      	adds	r2, r3, #1
   131e2:	606a      	str	r2, [r5, #4]
   131e4:	2220      	movs	r2, #32
   131e6:	701a      	strb	r2, [r3, #0]
   131e8:	e66a      	b.n	12ec0 <__printf_buffer+0xc90>
   131ea:	4acb      	ldr	r2, [pc, #812]	@ (13518 <__printf_buffer+0x12e8>)
   131ec:	447a      	add	r2, pc
   131ee:	f042 0201 	orr.w	r2, r2, #1
   131f2:	4710      	bx	r2
   131f4:	7891      	ldrb	r1, [r2, #2]
   131f6:	3202      	adds	r2, #2
   131f8:	6032      	str	r2, [r6, #0]
   131fa:	f1a1 0230 	sub.w	r2, r1, #48	@ 0x30
   131fe:	2a09      	cmp	r2, #9
   13200:	f63f ab9a 	bhi.w	12938 <__printf_buffer+0x708>
   13204:	4630      	mov	r0, r6
   13206:	9311      	str	r3, [sp, #68]	@ 0x44
   13208:	f7fd fe36 	bl	10e78 <read_int>
   1320c:	9b11      	ldr	r3, [sp, #68]	@ 0x44
   1320e:	2820      	cmp	r0, #32
   13210:	d006      	beq.n	13220 <__printf_buffer+0xff0>
   13212:	f300 8102 	bgt.w	1341a <__printf_buffer+0x11ea>
   13216:	2808      	cmp	r0, #8
   13218:	f040 811a 	bne.w	13450 <__printf_buffer+0x1220>
   1321c:	f04f 0801 	mov.w	r8, #1
   13220:	6832      	ldr	r2, [r6, #0]
   13222:	7814      	ldrb	r4, [r2, #0]
   13224:	f1a4 0220 	sub.w	r2, r4, #32
   13228:	2a5a      	cmp	r2, #90	@ 0x5a
   1322a:	d80d      	bhi.n	13248 <__printf_buffer+0x1018>
   1322c:	4abb      	ldr	r2, [pc, #748]	@ (1351c <__printf_buffer+0x12ec>)
   1322e:	447a      	add	r2, pc
   13230:	4422      	add	r2, r4
   13232:	f812 1c20 	ldrb.w	r1, [r2, #-32]
   13236:	4aba      	ldr	r2, [pc, #744]	@ (13520 <__printf_buffer+0x12f0>)
   13238:	447a      	add	r2, pc
   1323a:	eb02 0281 	add.w	r2, r2, r1, lsl #2
   1323e:	f8d2 2280 	ldr.w	r2, [r2, #640]	@ 0x280
   13242:	f042 0201 	orr.w	r2, r2, #1
   13246:	4710      	bx	r2
   13248:	4ab6      	ldr	r2, [pc, #728]	@ (13524 <__printf_buffer+0x12f4>)
   1324a:	447a      	add	r2, pc
   1324c:	f042 0201 	orr.w	r2, r2, #1
   13250:	4710      	bx	r2
   13252:	2201      	movs	r2, #1
   13254:	9318      	str	r3, [sp, #96]	@ 0x60
   13256:	46ba      	mov	sl, r7
   13258:	2330      	movs	r3, #48	@ 0x30
   1325a:	4610      	mov	r0, r2
   1325c:	f88d 34bb 	strb.w	r3, [sp, #1211]	@ 0x4bb
   13260:	9215      	str	r2, [sp, #84]	@ 0x54
   13262:	f04f 33ff 	mov.w	r3, #4294967295	@ 0xffffffff
   13266:	9711      	str	r7, [sp, #68]	@ 0x44
   13268:	931d      	str	r3, [sp, #116]	@ 0x74
   1326a:	2320      	movs	r3, #32
   1326c:	9210      	str	r2, [sp, #64]	@ 0x40
   1326e:	930e      	str	r3, [sp, #56]	@ 0x38
   13270:	f20d 43bb 	addw	r3, sp, #1211	@ 0x4bb
   13274:	9316      	str	r3, [sp, #88]	@ 0x58
   13276:	2308      	movs	r3, #8
   13278:	9314      	str	r3, [sp, #80]	@ 0x50
   1327a:	f7ff b9b2 	b.w	125e2 <__printf_buffer+0x3b2>
   1327e:	4640      	mov	r0, r8
   13280:	f005 fcfe 	bl	18c80 <strlen>
   13284:	4604      	mov	r4, r0
   13286:	f7ff b94d 	b.w	12524 <__printf_buffer+0x2f4>
   1328a:	9b1e      	ldr	r3, [sp, #120]	@ 0x78
   1328c:	f8cd a04c 	str.w	sl, [sp, #76]	@ 0x4c
   13290:	461f      	mov	r7, r3
   13292:	2b00      	cmp	r3, #0
   13294:	db51      	blt.n	1333a <__printf_buffer+0x110a>
   13296:	230a      	movs	r3, #10
   13298:	f8cd 8024 	str.w	r8, [sp, #36]	@ 0x24
   1329c:	9314      	str	r3, [sp, #80]	@ 0x50
   1329e:	f7ff b97e 	b.w	1259e <__printf_buffer+0x36e>
   132a2:	4a87      	ldr	r2, [pc, #540]	@ (134c0 <__printf_buffer+0x1290>)
   132a4:	9917      	ldr	r1, [sp, #92]	@ 0x5c
   132a6:	447a      	add	r2, pc
   132a8:	6812      	ldr	r2, [r2, #0]
   132aa:	588a      	ldr	r2, [r1, r2]
   132ac:	6812      	ldr	r2, [r2, #0]
   132ae:	e9d2 0109 	ldrd	r0, r1, [r2, #36]	@ 0x24
   132b2:	9019      	str	r0, [sp, #100]	@ 0x64
   132b4:	780a      	ldrb	r2, [r1, #0]
   132b6:	3a01      	subs	r2, #1
   132b8:	b2d2      	uxtb	r2, r2
   132ba:	2afd      	cmp	r2, #253	@ 0xfd
   132bc:	bf84      	itt	hi
   132be:	2200      	movhi	r2, #0
   132c0:	9223      	strhi	r2, [sp, #140]	@ 0x8c
   132c2:	f63f aad3 	bhi.w	1286c <__printf_buffer+0x63c>
   132c6:	7802      	ldrb	r2, [r0, #0]
   132c8:	2a00      	cmp	r2, #0
   132ca:	bf08      	it	eq
   132cc:	2100      	moveq	r1, #0
   132ce:	9123      	str	r1, [sp, #140]	@ 0x8c
   132d0:	f7ff bacc 	b.w	1286c <__printf_buffer+0x63c>
   132d4:	f8df 8250 	ldr.w	r8, [pc, #592]	@ 13528 <__printf_buffer+0x12f8>
   132d8:	2406      	movs	r4, #6
   132da:	44f8      	add	r8, pc
   132dc:	f7ff b922 	b.w	12524 <__printf_buffer+0x2f4>
   132e0:	7038      	strb	r0, [r7, #0]
   132e2:	f7ff b880 	b.w	123e6 <__printf_buffer+0x1b6>
   132e6:	b27f      	sxtb	r7, r7
   132e8:	e6a7      	b.n	1303a <__printf_buffer+0xe0a>
   132ea:	9b0a      	ldr	r3, [sp, #40]	@ 0x28
   132ec:	931d      	str	r3, [sp, #116]	@ 0x74
   132ee:	4618      	mov	r0, r3
   132f0:	9311      	str	r3, [sp, #68]	@ 0x44
   132f2:	9315      	str	r3, [sp, #84]	@ 0x54
   132f4:	2320      	movs	r3, #32
   132f6:	930e      	str	r3, [sp, #56]	@ 0x38
   132f8:	f20d 43bc 	addw	r3, sp, #1212	@ 0x4bc
   132fc:	9316      	str	r3, [sp, #88]	@ 0x58
   132fe:	e59e      	b.n	12e3e <__printf_buffer+0xc0e>
   13300:	465a      	mov	r2, fp
   13302:	f852 1b04 	ldr.w	r1, [r2], #4
   13306:	4693      	mov	fp, r2
   13308:	ea41 72e1 	orr.w	r2, r1, r1, asr #31
   1330c:	920a      	str	r2, [sp, #40]	@ 0x28
   1330e:	f7ff bbc9 	b.w	12aa4 <__printf_buffer+0x874>
   13312:	f8df 8218 	ldr.w	r8, [pc, #536]	@ 1352c <__printf_buffer+0x12fc>
   13316:	44f8      	add	r8, pc
   13318:	f7ff b8ff 	b.w	1251a <__printf_buffer+0x2ea>
   1331c:	9a0c      	ldr	r2, [sp, #48]	@ 0x30
   1331e:	6812      	ldr	r2, [r2, #0]
   13320:	7812      	ldrb	r2, [r2, #0]
   13322:	2a24      	cmp	r2, #36	@ 0x24
   13324:	f47f aefb 	bne.w	1311e <__printf_buffer+0xeee>
   13328:	e59c      	b.n	12e64 <__printf_buffer+0xc34>
   1332a:	4249      	negs	r1, r1
   1332c:	4693      	mov	fp, r2
   1332e:	910c      	str	r1, [sp, #48]	@ 0x30
   13330:	2201      	movs	r2, #1
   13332:	2120      	movs	r1, #32
   13334:	e9cd 210d 	strd	r2, r1, [sp, #52]	@ 0x34
   13338:	e6fa      	b.n	13130 <__printf_buffer+0xf00>
   1333a:	425f      	negs	r7, r3
   1333c:	230a      	movs	r3, #10
   1333e:	9314      	str	r3, [sp, #80]	@ 0x50
   13340:	2301      	movs	r3, #1
   13342:	9309      	str	r3, [sp, #36]	@ 0x24
   13344:	f7ff b92b 	b.w	1259e <__printf_buffer+0x36e>
   13348:	2300      	movs	r3, #0
   1334a:	f04f 32ff 	mov.w	r2, #4294967295	@ 0xffffffff
   1334e:	930b      	str	r3, [sp, #44]	@ 0x2c
   13350:	e9cd 3222 	strd	r3, r2, [sp, #136]	@ 0x88
   13354:	9319      	str	r3, [sp, #100]	@ 0x64
   13356:	e585      	b.n	12e64 <__printf_buffer+0xc34>
   13358:	9c1f      	ldr	r4, [sp, #124]	@ 0x7c
   1335a:	930a      	str	r3, [sp, #40]	@ 0x28
   1335c:	4620      	mov	r0, r4
   1335e:	f005 fc8f 	bl	18c80 <strlen>
   13362:	1c41      	adds	r1, r0, #1
   13364:	4620      	mov	r0, r4
   13366:	f007 ff09 	bl	1b17c <__readonly_area>
   1336a:	9b0a      	ldr	r3, [sp, #40]	@ 0x28
   1336c:	9022      	str	r0, [sp, #136]	@ 0x88
   1336e:	f7ff b8f3 	b.w	12558 <__printf_buffer+0x328>
   13372:	4630      	mov	r0, r6
   13374:	9311      	str	r3, [sp, #68]	@ 0x44
   13376:	f7fd fd7f 	bl	10e78 <read_int>
   1337a:	4603      	mov	r3, r0
   1337c:	3301      	adds	r3, #1
   1337e:	900a      	str	r0, [sp, #40]	@ 0x28
   13380:	d051      	beq.n	13426 <__printf_buffer+0x11f6>
   13382:	6832      	ldr	r2, [r6, #0]
   13384:	9b11      	ldr	r3, [sp, #68]	@ 0x44
   13386:	7814      	ldrb	r4, [r2, #0]
   13388:	f7ff bb8c 	b.w	12aa4 <__printf_buffer+0x874>
   1338c:	4630      	mov	r0, r6
   1338e:	9311      	str	r3, [sp, #68]	@ 0x44
   13390:	f7fd fd72 	bl	10e78 <read_int>
   13394:	9b11      	ldr	r3, [sp, #68]	@ 0x44
   13396:	2820      	cmp	r0, #32
   13398:	f43f af42 	beq.w	13220 <__printf_buffer+0xff0>
   1339c:	dc3d      	bgt.n	1341a <__printf_buffer+0x11ea>
   1339e:	2808      	cmp	r0, #8
   133a0:	f43f af3c 	beq.w	1321c <__printf_buffer+0xfec>
   133a4:	2810      	cmp	r0, #16
   133a6:	f47f aac7 	bne.w	12938 <__printf_buffer+0x708>
   133aa:	2301      	movs	r3, #1
   133ac:	e738      	b.n	13220 <__printf_buffer+0xff0>
   133ae:	2125      	movs	r1, #37	@ 0x25
   133b0:	4628      	mov	r0, r5
   133b2:	f015 feff 	bl	291b4 <__printf_buffer_putc_1>
   133b6:	f7ff b816 	b.w	123e6 <__printf_buffer+0x1b6>
   133ba:	2130      	movs	r1, #48	@ 0x30
   133bc:	4628      	mov	r0, r5
   133be:	f015 fef9 	bl	291b4 <__printf_buffer_putc_1>
   133c2:	f7ff b95a 	b.w	1267a <__printf_buffer+0x44a>
   133c6:	2130      	movs	r1, #48	@ 0x30
   133c8:	4628      	mov	r0, r5
   133ca:	f015 fef3 	bl	291b4 <__printf_buffer_putc_1>
   133ce:	e463      	b.n	12c98 <__printf_buffer+0xa68>
   133d0:	212d      	movs	r1, #45	@ 0x2d
   133d2:	4628      	mov	r0, r5
   133d4:	f015 feee 	bl	291b4 <__printf_buffer_putc_1>
   133d8:	f7ff b947 	b.w	1266a <__printf_buffer+0x43a>
   133dc:	212d      	movs	r1, #45	@ 0x2d
   133de:	4628      	mov	r0, r5
   133e0:	f015 fee8 	bl	291b4 <__printf_buffer_putc_1>
   133e4:	e56c      	b.n	12ec0 <__printf_buffer+0xc90>
   133e6:	4642      	mov	r2, r8
   133e8:	2120      	movs	r1, #32
   133ea:	4628      	mov	r0, r5
   133ec:	f015 feb2 	bl	29154 <__printf_buffer_pad_1>
   133f0:	f7ff b855 	b.w	1249e <__printf_buffer+0x26e>
   133f4:	8038      	strh	r0, [r7, #0]
   133f6:	f7fe bff6 	b.w	123e6 <__printf_buffer+0x1b6>
   133fa:	212b      	movs	r1, #43	@ 0x2b
   133fc:	4628      	mov	r0, r5
   133fe:	f015 fed9 	bl	291b4 <__printf_buffer_putc_1>
   13402:	e55d      	b.n	12ec0 <__printf_buffer+0xc90>
   13404:	212b      	movs	r1, #43	@ 0x2b
   13406:	4628      	mov	r0, r5
   13408:	f015 fed4 	bl	291b4 <__printf_buffer_putc_1>
   1340c:	f7ff b92d 	b.w	1266a <__printf_buffer+0x43a>
   13410:	4628      	mov	r0, r5
   13412:	f015 fecf 	bl	291b4 <__printf_buffer_putc_1>
   13416:	f7ff b84d 	b.w	124b4 <__printf_buffer+0x284>
   1341a:	2840      	cmp	r0, #64	@ 0x40
   1341c:	f47f aa8c 	bne.w	12938 <__printf_buffer+0x708>
   13420:	2701      	movs	r7, #1
   13422:	9709      	str	r7, [sp, #36]	@ 0x24
   13424:	e6fc      	b.n	13220 <__printf_buffer+0xff0>
   13426:	4b27      	ldr	r3, [pc, #156]	@ (134c4 <__printf_buffer+0x1294>)
   13428:	2100      	movs	r1, #0
   1342a:	224b      	movs	r2, #75	@ 0x4b
   1342c:	447b      	add	r3, pc
   1342e:	681b      	ldr	r3, [r3, #0]
   13430:	61a9      	str	r1, [r5, #24]
   13432:	9917      	ldr	r1, [sp, #92]	@ 0x5c
   13434:	50ca      	str	r2, [r1, r3]
   13436:	f7fe bf5c 	b.w	122f2 <__printf_buffer+0xc2>
   1343a:	2120      	movs	r1, #32
   1343c:	4628      	mov	r0, r5
   1343e:	f015 feb9 	bl	291b4 <__printf_buffer_putc_1>
   13442:	e53d      	b.n	12ec0 <__printf_buffer+0xc90>
   13444:	2120      	movs	r1, #32
   13446:	4628      	mov	r0, r5
   13448:	f015 feb4 	bl	291b4 <__printf_buffer_putc_1>
   1344c:	f7ff b90d 	b.w	1266a <__printf_buffer+0x43a>
   13450:	2810      	cmp	r0, #16
   13452:	f43f aee5 	beq.w	13220 <__printf_buffer+0xff0>
   13456:	f7ff ba6f 	b.w	12938 <__printf_buffer+0x708>
   1345a:	4621      	mov	r1, r4
   1345c:	4628      	mov	r0, r5
   1345e:	f015 fea9 	bl	291b4 <__printf_buffer_putc_1>
   13462:	f7ff b906 	b.w	12672 <__printf_buffer+0x442>
   13466:	2130      	movs	r1, #48	@ 0x30
   13468:	4628      	mov	r0, r5
   1346a:	f015 fea3 	bl	291b4 <__printf_buffer_putc_1>
   1346e:	e4c0      	b.n	12df2 <__printf_buffer+0xbc2>
   13470:	4621      	mov	r1, r4
   13472:	4628      	mov	r0, r5
   13474:	f015 fe9e 	bl	291b4 <__printf_buffer_putc_1>
   13478:	e543      	b.n	12f02 <__printf_buffer+0xcd2>
   1347a:	2130      	movs	r1, #48	@ 0x30
   1347c:	4628      	mov	r0, r5
   1347e:	f015 fe99 	bl	291b4 <__printf_buffer_putc_1>
   13482:	e536      	b.n	12ef2 <__printf_buffer+0xcc2>
   13484:	61af      	str	r7, [r5, #24]
   13486:	f7fe bf34 	b.w	122f2 <__printf_buffer+0xc2>
   1348a:	4b0f      	ldr	r3, [pc, #60]	@ (134c8 <__printf_buffer+0x1298>)
   1348c:	2100      	movs	r1, #0
   1348e:	224b      	movs	r2, #75	@ 0x4b
   13490:	447b      	add	r3, pc
   13492:	681b      	ldr	r3, [r3, #0]
   13494:	61a9      	str	r1, [r5, #24]
   13496:	9917      	ldr	r1, [sp, #92]	@ 0x5c
   13498:	50ca      	str	r2, [r1, r3]
   1349a:	f7fe bf2a 	b.w	122f2 <__printf_buffer+0xc2>
   1349e:	4b0b      	ldr	r3, [pc, #44]	@ (134cc <__printf_buffer+0x129c>)
   134a0:	2100      	movs	r1, #0
   134a2:	224b      	movs	r2, #75	@ 0x4b
   134a4:	447b      	add	r3, pc
   134a6:	681b      	ldr	r3, [r3, #0]
   134a8:	61a9      	str	r1, [r5, #24]
   134aa:	9917      	ldr	r1, [sp, #92]	@ 0x5c
   134ac:	50ca      	str	r2, [r1, r3]
   134ae:	f7fe bf20 	b.w	122f2 <__printf_buffer+0xc2>
   134b2:	f007 ff15 	bl	1b2e0 <__stack_chk_fail>
   134b6:	481e      	ldr	r0, [pc, #120]	@ (13530 <__printf_buffer+0x1300>)
   134b8:	4478      	add	r0, pc
   134ba:	f000 fcd1 	bl	13e60 <__libc_fatal>
   134be:	bf00      	nop
   134c0:	0004ee96 	.word	0x0004ee96
   134c4:	0004ecf0 	.word	0x0004ecf0
   134c8:	0004ec8c 	.word	0x0004ec8c
   134cc:	0004ec78 	.word	0x0004ec78
   134d0:	fffff2fa 	.word	0xfffff2fa
   134d4:	fffff2ea 	.word	0xfffff2ea
   134d8:	fffff2dc 	.word	0xfffff2dc
   134dc:	fffff2cc 	.word	0xfffff2cc
   134e0:	fffff2ba 	.word	0xfffff2ba
   134e4:	fffff272 	.word	0xfffff272
   134e8:	fffff250 	.word	0xfffff250
   134ec:	0003a89e 	.word	0x0003a89e
   134f0:	0004cd42 	.word	0x0004cd42
   134f4:	fffff21c 	.word	0xfffff21c
   134f8:	fffff206 	.word	0xfffff206
   134fc:	fffff1fa 	.word	0xfffff1fa
   13500:	fffff1ec 	.word	0xfffff1ec
   13504:	0003a802 	.word	0x0003a802
   13508:	0004cca8 	.word	0x0004cca8
   1350c:	0003a7a4 	.word	0x0003a7a4
   13510:	0004cc4a 	.word	0x0004cc4a
   13514:	00034360 	.word	0x00034360
   13518:	fffff0ee 	.word	0xfffff0ee
   1351c:	0003a706 	.word	0x0003a706
   13520:	0004cbac 	.word	0x0004cbac
   13524:	fffff090 	.word	0xfffff090
   13528:	000342ea 	.word	0x000342ea
   1352c:	0003420a 	.word	0x0003420a
   13530:	000340cc 	.word	0x000340cc

00013534 <__vfprintf_internal>:
   13534:	e92d 47f0 	stmdb	sp!, {r4, r5, r6, r7, r8, r9, sl, lr}
   13538:	4617      	mov	r7, r2
   1353a:	4a67      	ldr	r2, [pc, #412]	@ (136d8 <__vfprintf_internal+0x1a4>)
   1353c:	4698      	mov	r8, r3
   1353e:	4b67      	ldr	r3, [pc, #412]	@ (136dc <__vfprintf_internal+0x1a8>)
   13540:	447a      	add	r2, pc
   13542:	b0b0      	sub	sp, #192	@ 0xc0
   13544:	f8df 9198 	ldr.w	r9, [pc, #408]	@ 136e0 <__vfprintf_internal+0x1ac>
   13548:	4604      	mov	r4, r0
   1354a:	460d      	mov	r5, r1
   1354c:	58d3      	ldr	r3, [r2, r3]
   1354e:	44f9      	add	r9, pc
   13550:	681b      	ldr	r3, [r3, #0]
   13552:	932f      	str	r3, [sp, #188]	@ 0xbc
   13554:	f04f 0300 	mov.w	r3, #0
   13558:	6ec3      	ldr	r3, [r0, #108]	@ 0x6c
   1355a:	2b00      	cmp	r3, #0
   1355c:	d134      	bne.n	135c8 <__vfprintf_internal+0x94>
   1355e:	f04f 33ff 	mov.w	r3, #4294967295	@ 0xffffffff
   13562:	66c3      	str	r3, [r0, #108]	@ 0x6c
   13564:	6823      	ldr	r3, [r4, #0]
   13566:	f013 0a08 	ands.w	sl, r3, #8
   1356a:	f040 809c 	bne.w	136a6 <__vfprintf_internal+0x172>
   1356e:	2d00      	cmp	r5, #0
   13570:	f000 80a4 	beq.w	136bc <__vfprintf_internal+0x188>
   13574:	6be2      	ldr	r2, [r4, #60]	@ 0x3c
   13576:	0610      	lsls	r0, r2, #24
   13578:	d57b      	bpl.n	13672 <__vfprintf_internal+0x13e>
   1357a:	9401      	str	r4, [sp, #4]
   1357c:	0419      	lsls	r1, r3, #16
   1357e:	d546      	bpl.n	1360e <__vfprintf_internal+0xda>
   13580:	ae04      	add	r6, sp, #16
   13582:	4621      	mov	r1, r4
   13584:	4630      	mov	r0, r6
   13586:	f015 fee9 	bl	2935c <__printf_buffer_to_file_init>
   1358a:	4643      	mov	r3, r8
   1358c:	4629      	mov	r1, r5
   1358e:	463a      	mov	r2, r7
   13590:	4630      	mov	r0, r6
   13592:	f7fe fe4d 	bl	12230 <__printf_buffer>
   13596:	4630      	mov	r0, r6
   13598:	f015 fef6 	bl	29388 <__printf_buffer_to_file_done>
   1359c:	6823      	ldr	r3, [r4, #0]
   1359e:	4605      	mov	r5, r0
   135a0:	041b      	lsls	r3, r3, #16
   135a2:	d516      	bpl.n	135d2 <__vfprintf_internal+0x9e>
   135a4:	f1ba 0f00 	cmp.w	sl, #0
   135a8:	d12d      	bne.n	13606 <__vfprintf_internal+0xd2>
   135aa:	4a4e      	ldr	r2, [pc, #312]	@ (136e4 <__vfprintf_internal+0x1b0>)
   135ac:	4b4b      	ldr	r3, [pc, #300]	@ (136dc <__vfprintf_internal+0x1a8>)
   135ae:	447a      	add	r2, pc
   135b0:	58d3      	ldr	r3, [r2, r3]
   135b2:	681a      	ldr	r2, [r3, #0]
   135b4:	9b2f      	ldr	r3, [sp, #188]	@ 0xbc
   135b6:	405a      	eors	r2, r3
   135b8:	f04f 0300 	mov.w	r3, #0
   135bc:	f040 8086 	bne.w	136cc <__vfprintf_internal+0x198>
   135c0:	4628      	mov	r0, r5
   135c2:	b030      	add	sp, #192	@ 0xc0
   135c4:	e8bd 87f0 	ldmia.w	sp!, {r4, r5, r6, r7, r8, r9, sl, pc}
   135c8:	3301      	adds	r3, #1
   135ca:	d0cb      	beq.n	13564 <__vfprintf_internal+0x30>
   135cc:	f04f 35ff 	mov.w	r5, #4294967295	@ 0xffffffff
   135d0:	e7eb      	b.n	135aa <__vfprintf_internal+0x76>
   135d2:	4a45      	ldr	r2, [pc, #276]	@ (136e8 <__vfprintf_internal+0x1b4>)
   135d4:	6ca0      	ldr	r0, [r4, #72]	@ 0x48
   135d6:	f859 2002 	ldr.w	r2, [r9, r2]
   135da:	6843      	ldr	r3, [r0, #4]
   135dc:	7812      	ldrb	r2, [r2, #0]
   135de:	2a00      	cmp	r2, #0
   135e0:	d13d      	bne.n	1365e <__vfprintf_internal+0x12a>
   135e2:	2b00      	cmp	r3, #0
   135e4:	d155      	bne.n	13692 <__vfprintf_internal+0x15e>
   135e6:	6083      	str	r3, [r0, #8]
   135e8:	f3bf 8f5b 	dmb	ish
   135ec:	e850 2f00 	ldrex	r2, [r0]
   135f0:	e840 3100 	strex	r1, r3, [r0]
   135f4:	2900      	cmp	r1, #0
   135f6:	d1f9      	bne.n	135ec <__vfprintf_internal+0xb8>
   135f8:	2a01      	cmp	r2, #1
   135fa:	ddd3      	ble.n	135a4 <__vfprintf_internal+0x70>
   135fc:	f000 fcda 	bl	13fb4 <__lll_lock_wake_private>
   13600:	f1ba 0f00 	cmp.w	sl, #0
   13604:	d0d1      	beq.n	135aa <__vfprintf_internal+0x76>
   13606:	4668      	mov	r0, sp
   13608:	f000 fc56 	bl	13eb8 <__libc_cleanup_pop_restore>
   1360c:	e7cd      	b.n	135aa <__vfprintf_internal+0x76>
   1360e:	4b37      	ldr	r3, [pc, #220]	@ (136ec <__vfprintf_internal+0x1b8>)
   13610:	4668      	mov	r0, sp
   13612:	f859 3003 	ldr.w	r3, [r9, r3]
   13616:	9300      	str	r3, [sp, #0]
   13618:	f000 fc2a 	bl	13e70 <__libc_cleanup_push_defer>
   1361c:	6823      	ldr	r3, [r4, #0]
   1361e:	041a      	lsls	r2, r3, #16
   13620:	d41a      	bmi.n	13658 <__vfprintf_internal+0x124>
   13622:	4b31      	ldr	r3, [pc, #196]	@ (136e8 <__vfprintf_internal+0x1b4>)
   13624:	ee1d 6f70 	mrc	15, 0, r6, cr13, cr0, {3}
   13628:	6ca0      	ldr	r0, [r4, #72]	@ 0x48
   1362a:	f5a6 66a0 	sub.w	r6, r6, #1280	@ 0x500
   1362e:	f859 3003 	ldr.w	r3, [r9, r3]
   13632:	781a      	ldrb	r2, [r3, #0]
   13634:	6883      	ldr	r3, [r0, #8]
   13636:	b9b2      	cbnz	r2, 13666 <__vfprintf_internal+0x132>
   13638:	42b3      	cmp	r3, r6
   1363a:	d02d      	beq.n	13698 <__vfprintf_internal+0x164>
   1363c:	2301      	movs	r3, #1
   1363e:	e850 2f00 	ldrex	r2, [r0]
   13642:	2a00      	cmp	r2, #0
   13644:	d105      	bne.n	13652 <__vfprintf_internal+0x11e>
   13646:	e840 3100 	strex	r1, r3, [r0]
   1364a:	2900      	cmp	r1, #0
   1364c:	d1f7      	bne.n	1363e <__vfprintf_internal+0x10a>
   1364e:	f3bf 8f5b 	dmb	ish
   13652:	d125      	bne.n	136a0 <__vfprintf_internal+0x16c>
   13654:	6ca3      	ldr	r3, [r4, #72]	@ 0x48
   13656:	609e      	str	r6, [r3, #8]
   13658:	f04f 0a01 	mov.w	sl, #1
   1365c:	e790      	b.n	13580 <__vfprintf_internal+0x4c>
   1365e:	b9c3      	cbnz	r3, 13692 <__vfprintf_internal+0x15e>
   13660:	6083      	str	r3, [r0, #8]
   13662:	6003      	str	r3, [r0, #0]
   13664:	e79e      	b.n	135a4 <__vfprintf_internal+0x70>
   13666:	2b00      	cmp	r3, #0
   13668:	d1e6      	bne.n	13638 <__vfprintf_internal+0x104>
   1366a:	2301      	movs	r3, #1
   1366c:	6086      	str	r6, [r0, #8]
   1366e:	6003      	str	r3, [r0, #0]
   13670:	e7f2      	b.n	13658 <__vfprintf_internal+0x124>
   13672:	4621      	mov	r1, r4
   13674:	ac04      	add	r4, sp, #16
   13676:	4620      	mov	r0, r4
   13678:	f015 fe70 	bl	2935c <__printf_buffer_to_file_init>
   1367c:	4629      	mov	r1, r5
   1367e:	4643      	mov	r3, r8
   13680:	463a      	mov	r2, r7
   13682:	4620      	mov	r0, r4
   13684:	f7fe fdd4 	bl	12230 <__printf_buffer>
   13688:	4620      	mov	r0, r4
   1368a:	f015 fe7d 	bl	29388 <__printf_buffer_to_file_done>
   1368e:	4605      	mov	r5, r0
   13690:	e78b      	b.n	135aa <__vfprintf_internal+0x76>
   13692:	3b01      	subs	r3, #1
   13694:	6043      	str	r3, [r0, #4]
   13696:	e785      	b.n	135a4 <__vfprintf_internal+0x70>
   13698:	6843      	ldr	r3, [r0, #4]
   1369a:	3301      	adds	r3, #1
   1369c:	6043      	str	r3, [r0, #4]
   1369e:	e7db      	b.n	13658 <__vfprintf_internal+0x124>
   136a0:	f000 fc3a 	bl	13f18 <__lll_lock_wait_private>
   136a4:	e7d6      	b.n	13654 <__vfprintf_internal+0x120>
   136a6:	f043 0320 	orr.w	r3, r3, #32
   136aa:	4a09      	ldr	r2, [pc, #36]	@ (136d0 <__vfprintf_internal+0x19c>)
   136ac:	6023      	str	r3, [r4, #0]
   136ae:	ee1d 3f70 	mrc	15, 0, r3, cr13, cr0, {3}
   136b2:	2109      	movs	r1, #9
   136b4:	447a      	add	r2, pc
   136b6:	6812      	ldr	r2, [r2, #0]
   136b8:	5099      	str	r1, [r3, r2]
   136ba:	e787      	b.n	135cc <__vfprintf_internal+0x98>
   136bc:	4b05      	ldr	r3, [pc, #20]	@ (136d4 <__vfprintf_internal+0x1a0>)
   136be:	ee1d 2f70 	mrc	15, 0, r2, cr13, cr0, {3}
   136c2:	2116      	movs	r1, #22
   136c4:	447b      	add	r3, pc
   136c6:	681b      	ldr	r3, [r3, #0]
   136c8:	50d1      	str	r1, [r2, r3]
   136ca:	e77f      	b.n	135cc <__vfprintf_internal+0x98>
   136cc:	f007 fe08 	bl	1b2e0 <__stack_chk_fail>
   136d0:	0004ea68 	.word	0x0004ea68
   136d4:	0004ea58 	.word	0x0004ea58
   136d8:	0004eabc 	.word	0x0004eabc
   136dc:	00000040 	.word	0x00000040
   136e0:	0004eaae 	.word	0x0004eaae
   136e4:	0004ea4e 	.word	0x0004ea4e
   136e8:	00000050 	.word	0x00000050
   136ec:	0000007c 	.word	0x0000007c

000136f0 <__get_errname>:
   136f0:	2885      	cmp	r0, #133	@ 0x85
   136f2:	d80b      	bhi.n	1370c <__get_errname+0x1c>
   136f4:	4b06      	ldr	r3, [pc, #24]	@ (13710 <__get_errname+0x20>)
   136f6:	447b      	add	r3, pc
   136f8:	f833 3010 	ldrh.w	r3, [r3, r0, lsl #1]
   136fc:	b100      	cbz	r0, 13700 <__get_errname+0x10>
   136fe:	b12b      	cbz	r3, 1370c <__get_errname+0x1c>
   13700:	4804      	ldr	r0, [pc, #16]	@ (13714 <__get_errname+0x24>)
   13702:	4478      	add	r0, pc
   13704:	f500 7086 	add.w	r0, r0, #268	@ 0x10c
   13708:	4418      	add	r0, r3
   1370a:	4770      	bx	lr
   1370c:	2000      	movs	r0, #0
   1370e:	4770      	bx	lr
   13710:	0003a29a 	.word	0x0003a29a
   13714:	0003a28e 	.word	0x0003a28e

00013718 <read_int>:
   13718:	b570      	push	{r4, r5, r6, lr}
   1371a:	4601      	mov	r1, r0
   1371c:	6804      	ldr	r4, [r0, #0]
   1371e:	4622      	mov	r2, r4
   13720:	f812 3b01 	ldrb.w	r3, [r2], #1
   13724:	6002      	str	r2, [r0, #0]
   13726:	f1a3 0030 	sub.w	r0, r3, #48	@ 0x30
   1372a:	7863      	ldrb	r3, [r4, #1]
   1372c:	3b30      	subs	r3, #48	@ 0x30
   1372e:	2b09      	cmp	r3, #9
   13730:	d81a      	bhi.n	13768 <read_int+0x50>
   13732:	f64c 44cc 	movw	r4, #52428	@ 0xcccc
   13736:	f6c0 44cc 	movt	r4, #3276	@ 0xccc
   1373a:	260a      	movs	r6, #10
   1373c:	f06f 4500 	mvn.w	r5, #2147483648	@ 0x80000000
   13740:	2800      	cmp	r0, #0
   13742:	db0b      	blt.n	1375c <read_int+0x44>
   13744:	fb06 fc00 	mul.w	ip, r6, r0
   13748:	42a0      	cmp	r0, r4
   1374a:	eba5 0e03 	sub.w	lr, r5, r3
   1374e:	f04f 30ff 	mov.w	r0, #4294967295	@ 0xffffffff
   13752:	dc03      	bgt.n	1375c <read_int+0x44>
   13754:	45f4      	cmp	ip, lr
   13756:	bfd8      	it	le
   13758:	eb03 000c 	addle.w	r0, r3, ip
   1375c:	3201      	adds	r2, #1
   1375e:	600a      	str	r2, [r1, #0]
   13760:	7813      	ldrb	r3, [r2, #0]
   13762:	3b30      	subs	r3, #48	@ 0x30
   13764:	2b09      	cmp	r3, #9
   13766:	d9eb      	bls.n	13740 <read_int+0x28>
   13768:	bd70      	pop	{r4, r5, r6, pc}
   1376a:	bf00      	nop

0001376c <__parse_one_specmb>:
   1376c:	e92d 46f0 	stmdb	sp!, {r4, r5, r6, r7, r9, sl, lr}
   13770:	4616      	mov	r6, r2
   13772:	8992      	ldrh	r2, [r2, #12]
   13774:	b083      	sub	sp, #12
   13776:	469a      	mov	sl, r3
   13778:	f422 52ef 	bic.w	r2, r2, #7648	@ 0x1de0
   1377c:	f04f 33ff 	mov.w	r3, #4294967295	@ 0xffffffff
   13780:	f022 0218 	bic.w	r2, r2, #24
   13784:	81b2      	strh	r2, [r6, #12]
   13786:	9a0a      	ldr	r2, [sp, #40]	@ 0x28
   13788:	1c47      	adds	r7, r0, #1
   1378a:	6273      	str	r3, [r6, #36]	@ 0x24
   1378c:	2320      	movs	r3, #32
   1378e:	9701      	str	r7, [sp, #4]
   13790:	4689      	mov	r9, r1
   13792:	6133      	str	r3, [r6, #16]
   13794:	2300      	movs	r3, #0
   13796:	7013      	strb	r3, [r2, #0]
   13798:	7844      	ldrb	r4, [r0, #1]
   1379a:	f1a4 0330 	sub.w	r3, r4, #48	@ 0x30
   1379e:	2b09      	cmp	r3, #9
   137a0:	f240 8134 	bls.w	13a0c <__parse_one_specmb+0x2a0>
   137a4:	3c20      	subs	r4, #32
   137a6:	2c29      	cmp	r4, #41	@ 0x29
   137a8:	d834      	bhi.n	13814 <__parse_one_specmb+0xa8>
   137aa:	e8df f014 	tbh	[pc, r4, lsl #1]
   137ae:	00fd      	.short	0x00fd
   137b0:	00330033 	.word	0x00330033
   137b4:	003300f8 	.word	0x003300f8
   137b8:	00330033 	.word	0x00330033
   137bc:	003300f3 	.word	0x003300f3
   137c0:	00330033 	.word	0x00330033
   137c4:	003300ee 	.word	0x003300ee
   137c8:	003300e9 	.word	0x003300e9
   137cc:	00e60033 	.word	0x00e60033
   137d0:	00330033 	.word	0x00330033
   137d4:	00330033 	.word	0x00330033
   137d8:	00330033 	.word	0x00330033
   137dc:	00330033 	.word	0x00330033
   137e0:	00330033 	.word	0x00330033
   137e4:	00330033 	.word	0x00330033
   137e8:	00330033 	.word	0x00330033
   137ec:	00330033 	.word	0x00330033
   137f0:	00330033 	.word	0x00330033
   137f4:	00330033 	.word	0x00330033
   137f8:	00330033 	.word	0x00330033
   137fc:	00330033 	.word	0x00330033
   13800:	002a      	.short	0x002a
   13802:	7b73      	ldrb	r3, [r6, #13]
   13804:	f043 0308 	orr.w	r3, r3, #8
   13808:	7373      	strb	r3, [r6, #13]
   1380a:	3701      	adds	r7, #1
   1380c:	9701      	str	r7, [sp, #4]
   1380e:	783c      	ldrb	r4, [r7, #0]
   13810:	2c00      	cmp	r4, #0
   13812:	d1c7      	bne.n	137a4 <__parse_one_specmb+0x38>
   13814:	7b33      	ldrb	r3, [r6, #12]
   13816:	2400      	movs	r4, #0
   13818:	6074      	str	r4, [r6, #4]
   1381a:	0698      	lsls	r0, r3, #26
   1381c:	bf44      	itt	mi
   1381e:	2320      	movmi	r3, #32
   13820:	6133      	strmi	r3, [r6, #16]
   13822:	f04f 33ff 	mov.w	r3, #4294967295	@ 0xffffffff
   13826:	6233      	str	r3, [r6, #32]
   13828:	783b      	ldrb	r3, [r7, #0]
   1382a:	2b2a      	cmp	r3, #42	@ 0x2a
   1382c:	f000 80df 	beq.w	139ee <__parse_one_specmb+0x282>
   13830:	3b30      	subs	r3, #48	@ 0x30
   13832:	2b09      	cmp	r3, #9
   13834:	f240 80bd 	bls.w	139b2 <__parse_one_specmb+0x246>
   13838:	f04f 33ff 	mov.w	r3, #4294967295	@ 0xffffffff
   1383c:	61f3      	str	r3, [r6, #28]
   1383e:	6033      	str	r3, [r6, #0]
   13840:	783b      	ldrb	r3, [r7, #0]
   13842:	2b2e      	cmp	r3, #46	@ 0x2e
   13844:	f000 80bd 	beq.w	139c2 <__parse_one_specmb+0x256>
   13848:	f8df 34c4 	ldr.w	r3, [pc, #1220]	@ 13d10 <__parse_one_specmb+0x5a4>
   1384c:	68f1      	ldr	r1, [r6, #12]
   1384e:	447b      	add	r3, pc
   13850:	681a      	ldr	r2, [r3, #0]
   13852:	f64f 53f8 	movw	r3, #65016	@ 0xfdf8
   13856:	400b      	ands	r3, r1
   13858:	60f3      	str	r3, [r6, #12]
   1385a:	2a00      	cmp	r2, #0
   1385c:	f040 81ba 	bne.w	13bd4 <__parse_one_specmb+0x468>
   13860:	1c7a      	adds	r2, r7, #1
   13862:	9201      	str	r2, [sp, #4]
   13864:	783b      	ldrb	r3, [r7, #0]
   13866:	3b4c      	subs	r3, #76	@ 0x4c
   13868:	2b2e      	cmp	r3, #46	@ 0x2e
   1386a:	d837      	bhi.n	138dc <__parse_one_specmb+0x170>
   1386c:	e8df f013 	tbh	[pc, r3, lsl #1]
   13870:	0036011f 	.word	0x0036011f
   13874:	00360036 	.word	0x00360036
   13878:	00360036 	.word	0x00360036
   1387c:	00360036 	.word	0x00360036
   13880:	00360036 	.word	0x00360036
   13884:	00360036 	.word	0x00360036
   13888:	00360036 	.word	0x00360036
   1388c:	0036002f 	.word	0x0036002f
   13890:	00360036 	.word	0x00360036
   13894:	00360036 	.word	0x00360036
   13898:	00360036 	.word	0x00360036
   1389c:	00360036 	.word	0x00360036
   138a0:	00360036 	.word	0x00360036
   138a4:	00360036 	.word	0x00360036
   138a8:	00360126 	.word	0x00360126
   138ac:	00360132 	.word	0x00360132
   138b0:	0036013c 	.word	0x0036013c
   138b4:	00360036 	.word	0x00360036
   138b8:	011f0036 	.word	0x011f0036
   138bc:	00360036 	.word	0x00360036
   138c0:	0036002f 	.word	0x0036002f
   138c4:	01480036 	.word	0x01480036
   138c8:	00360036 	.word	0x00360036
   138cc:	002f      	.short	0x002f
   138ce:	1cbb      	adds	r3, r7, #2
   138d0:	4617      	mov	r7, r2
   138d2:	461a      	mov	r2, r3
   138d4:	7b33      	ldrb	r3, [r6, #12]
   138d6:	f023 0305 	bic.w	r3, r3, #5
   138da:	7333      	strb	r3, [r6, #12]
   138dc:	9201      	str	r2, [sp, #4]
   138de:	f04f 33ff 	mov.w	r3, #4294967295	@ 0xffffffff
   138e2:	783a      	ldrb	r2, [r7, #0]
   138e4:	6333      	str	r3, [r6, #48]	@ 0x30
   138e6:	f8df 342c 	ldr.w	r3, [pc, #1068]	@ 13d14 <__parse_one_specmb+0x5a8>
   138ea:	60b2      	str	r2, [r6, #8]
   138ec:	447b      	add	r3, pc
   138ee:	681b      	ldr	r3, [r3, #0]
   138f0:	2b00      	cmp	r3, #0
   138f2:	f040 8150 	bne.w	13b96 <__parse_one_specmb+0x42a>
   138f6:	2301      	movs	r3, #1
   138f8:	62f3      	str	r3, [r6, #44]	@ 0x2c
   138fa:	f1a2 0341 	sub.w	r3, r2, #65	@ 0x41
   138fe:	6a71      	ldr	r1, [r6, #36]	@ 0x24
   13900:	2b37      	cmp	r3, #55	@ 0x37
   13902:	f200 809e 	bhi.w	13a42 <__parse_one_specmb+0x2d6>
   13906:	e8df f013 	tbh	[pc, r3, lsl #1]
   1390a:	00a7      	.short	0x00a7
   1390c:	017500bc 	.word	0x017500bc
   13910:	00a7009c 	.word	0x00a7009c
   13914:	00a700a7 	.word	0x00a700a7
   13918:	009c009c 	.word	0x009c009c
   1391c:	009c009c 	.word	0x009c009c
   13920:	009c009c 	.word	0x009c009c
   13924:	009c009c 	.word	0x009c009c
   13928:	009c009c 	.word	0x009c009c
   1392c:	0192009c 	.word	0x0192009c
   13930:	009c009c 	.word	0x009c009c
   13934:	009c009c 	.word	0x009c009c
   13938:	009c00bc 	.word	0x009c00bc
   1393c:	009c009c 	.word	0x009c009c
   13940:	009c009c 	.word	0x009c009c
   13944:	009c009c 	.word	0x009c009c
   13948:	00a7009c 	.word	0x00a7009c
   1394c:	011000bc 	.word	0x011000bc
   13950:	00a700bc 	.word	0x00a700bc
   13954:	00a700a7 	.word	0x00a700a7
   13958:	00bc009c 	.word	0x00bc009c
   1395c:	009c009c 	.word	0x009c009c
   13960:	009c009c 	.word	0x009c009c
   13964:	00bc018a 	.word	0x00bc018a
   13968:	009c0183 	.word	0x009c0183
   1396c:	017c009c 	.word	0x017c009c
   13970:	00bc009c 	.word	0x00bc009c
   13974:	009c009c 	.word	0x009c009c
   13978:	00bc      	.short	0x00bc
   1397a:	2330      	movs	r3, #48	@ 0x30
   1397c:	6133      	str	r3, [r6, #16]
   1397e:	e744      	b.n	1380a <__parse_one_specmb+0x9e>
   13980:	7b33      	ldrb	r3, [r6, #12]
   13982:	f043 0320 	orr.w	r3, r3, #32
   13986:	7333      	strb	r3, [r6, #12]
   13988:	e73f      	b.n	1380a <__parse_one_specmb+0x9e>
   1398a:	7b33      	ldrb	r3, [r6, #12]
   1398c:	f043 0340 	orr.w	r3, r3, #64	@ 0x40
   13990:	7333      	strb	r3, [r6, #12]
   13992:	e73a      	b.n	1380a <__parse_one_specmb+0x9e>
   13994:	7b33      	ldrb	r3, [r6, #12]
   13996:	f043 0380 	orr.w	r3, r3, #128	@ 0x80
   1399a:	7333      	strb	r3, [r6, #12]
   1399c:	e735      	b.n	1380a <__parse_one_specmb+0x9e>
   1399e:	7b33      	ldrb	r3, [r6, #12]
   139a0:	f043 0308 	orr.w	r3, r3, #8
   139a4:	7333      	strb	r3, [r6, #12]
   139a6:	e730      	b.n	1380a <__parse_one_specmb+0x9e>
   139a8:	7b33      	ldrb	r3, [r6, #12]
   139aa:	f043 0310 	orr.w	r3, r3, #16
   139ae:	7333      	strb	r3, [r6, #12]
   139b0:	e72b      	b.n	1380a <__parse_one_specmb+0x9e>
   139b2:	a801      	add	r0, sp, #4
   139b4:	f7ff feb0 	bl	13718 <read_int>
   139b8:	9f01      	ldr	r7, [sp, #4]
   139ba:	1c42      	adds	r2, r0, #1
   139bc:	bf18      	it	ne
   139be:	6070      	strne	r0, [r6, #4]
   139c0:	e73a      	b.n	13838 <__parse_one_specmb+0xcc>
   139c2:	1c7a      	adds	r2, r7, #1
   139c4:	9201      	str	r2, [sp, #4]
   139c6:	787b      	ldrb	r3, [r7, #1]
   139c8:	2b2a      	cmp	r3, #42	@ 0x2a
   139ca:	f000 80b7 	beq.w	13b3c <__parse_one_specmb+0x3d0>
   139ce:	3b30      	subs	r3, #48	@ 0x30
   139d0:	2b09      	cmp	r3, #9
   139d2:	bf82      	ittt	hi
   139d4:	2300      	movhi	r3, #0
   139d6:	4617      	movhi	r7, r2
   139d8:	6033      	strhi	r3, [r6, #0]
   139da:	f63f af35 	bhi.w	13848 <__parse_one_specmb+0xdc>
   139de:	a801      	add	r0, sp, #4
   139e0:	f7ff fe9a 	bl	13718 <read_int>
   139e4:	9f01      	ldr	r7, [sp, #4]
   139e6:	1c45      	adds	r5, r0, #1
   139e8:	bf18      	it	ne
   139ea:	6030      	strne	r0, [r6, #0]
   139ec:	e72c      	b.n	13848 <__parse_one_specmb+0xdc>
   139ee:	1c7d      	adds	r5, r7, #1
   139f0:	9501      	str	r5, [sp, #4]
   139f2:	787b      	ldrb	r3, [r7, #1]
   139f4:	3b30      	subs	r3, #48	@ 0x30
   139f6:	2b09      	cmp	r3, #9
   139f8:	f240 80af 	bls.w	13b5a <__parse_one_specmb+0x3ee>
   139fc:	f8c6 9020 	str.w	r9, [r6, #32]
   13a00:	462f      	mov	r7, r5
   13a02:	f109 0901 	add.w	r9, r9, #1
   13a06:	2401      	movs	r4, #1
   13a08:	9501      	str	r5, [sp, #4]
   13a0a:	e715      	b.n	13838 <__parse_one_specmb+0xcc>
   13a0c:	4605      	mov	r5, r0
   13a0e:	a801      	add	r0, sp, #4
   13a10:	f7ff fe82 	bl	13718 <read_int>
   13a14:	b190      	cbz	r0, 13a3c <__parse_one_specmb+0x2d0>
   13a16:	9b01      	ldr	r3, [sp, #4]
   13a18:	781a      	ldrb	r2, [r3, #0]
   13a1a:	2a24      	cmp	r2, #36	@ 0x24
   13a1c:	d10e      	bne.n	13a3c <__parse_one_specmb+0x2d0>
   13a1e:	1c5f      	adds	r7, r3, #1
   13a20:	1c44      	adds	r4, r0, #1
   13a22:	9701      	str	r7, [sp, #4]
   13a24:	d008      	beq.n	13a38 <__parse_one_specmb+0x2cc>
   13a26:	1e42      	subs	r2, r0, #1
   13a28:	6272      	str	r2, [r6, #36]	@ 0x24
   13a2a:	f8da 2000 	ldr.w	r2, [sl]
   13a2e:	4290      	cmp	r0, r2
   13a30:	bf38      	it	cc
   13a32:	4610      	movcc	r0, r2
   13a34:	f8ca 0000 	str.w	r0, [sl]
   13a38:	785c      	ldrb	r4, [r3, #1]
   13a3a:	e6b3      	b.n	137a4 <__parse_one_specmb+0x38>
   13a3c:	9701      	str	r7, [sp, #4]
   13a3e:	786c      	ldrb	r4, [r5, #1]
   13a40:	e6b0      	b.n	137a4 <__parse_one_specmb+0x38>
   13a42:	2300      	movs	r3, #0
   13a44:	62f3      	str	r3, [r6, #44]	@ 0x2c
   13a46:	9d01      	ldr	r5, [sp, #4]
   13a48:	b98a      	cbnz	r2, 13a6e <__parse_one_specmb+0x302>
   13a4a:	3d01      	subs	r5, #1
   13a4c:	4620      	mov	r0, r4
   13a4e:	e9c6 5505 	strd	r5, r5, [r6, #20]
   13a52:	b003      	add	sp, #12
   13a54:	e8bd 86f0 	ldmia.w	sp!, {r4, r5, r6, r7, r9, sl, pc}
   13a58:	7b33      	ldrb	r3, [r6, #12]
   13a5a:	f013 0f01 	tst.w	r3, #1
   13a5e:	f240 1307 	movw	r3, #263	@ 0x107
   13a62:	bf08      	it	eq
   13a64:	2307      	moveq	r3, #7
   13a66:	3101      	adds	r1, #1
   13a68:	62b3      	str	r3, [r6, #40]	@ 0x28
   13a6a:	d062      	beq.n	13b32 <__parse_one_specmb+0x3c6>
   13a6c:	9d01      	ldr	r5, [sp, #4]
   13a6e:	2125      	movs	r1, #37	@ 0x25
   13a70:	4628      	mov	r0, r5
   13a72:	6175      	str	r5, [r6, #20]
   13a74:	f005 f8ca 	bl	18c0c <__strchrnul>
   13a78:	61b0      	str	r0, [r6, #24]
   13a7a:	4620      	mov	r0, r4
   13a7c:	b003      	add	sp, #12
   13a7e:	e8bd 86f0 	ldmia.w	sp!, {r4, r5, r6, r7, r9, sl, pc}
   13a82:	7b33      	ldrb	r3, [r6, #12]
   13a84:	07d8      	lsls	r0, r3, #31
   13a86:	bf48      	it	mi
   13a88:	f44f 7380 	movmi.w	r3, #256	@ 0x100
   13a8c:	d4eb      	bmi.n	13a66 <__parse_one_specmb+0x2fa>
   13a8e:	075a      	lsls	r2, r3, #29
   13a90:	bf48      	it	mi
   13a92:	f44f 7300 	movmi.w	r3, #512	@ 0x200
   13a96:	d4e6      	bmi.n	13a66 <__parse_one_specmb+0x2fa>
   13a98:	079b      	lsls	r3, r3, #30
   13a9a:	bf48      	it	mi
   13a9c:	f44f 6380 	movmi.w	r3, #1024	@ 0x400
   13aa0:	d4e1      	bmi.n	13a66 <__parse_one_specmb+0x2fa>
   13aa2:	7b73      	ldrb	r3, [r6, #13]
   13aa4:	f013 0302 	ands.w	r3, r3, #2
   13aa8:	bf18      	it	ne
   13aaa:	2301      	movne	r3, #1
   13aac:	e7db      	b.n	13a66 <__parse_one_specmb+0x2fa>
   13aae:	4617      	mov	r7, r2
   13ab0:	7b33      	ldrb	r3, [r6, #12]
   13ab2:	1c7a      	adds	r2, r7, #1
   13ab4:	f043 0301 	orr.w	r3, r3, #1
   13ab8:	7333      	strb	r3, [r6, #12]
   13aba:	e70f      	b.n	138dc <__parse_one_specmb+0x170>
   13abc:	787b      	ldrb	r3, [r7, #1]
   13abe:	2b68      	cmp	r3, #104	@ 0x68
   13ac0:	f000 80d5 	beq.w	13c6e <__parse_one_specmb+0x502>
   13ac4:	1cbb      	adds	r3, r7, #2
   13ac6:	4617      	mov	r7, r2
   13ac8:	461a      	mov	r2, r3
   13aca:	7b33      	ldrb	r3, [r6, #12]
   13acc:	f043 0302 	orr.w	r3, r3, #2
   13ad0:	7333      	strb	r3, [r6, #12]
   13ad2:	e703      	b.n	138dc <__parse_one_specmb+0x170>
   13ad4:	1cbb      	adds	r3, r7, #2
   13ad6:	4617      	mov	r7, r2
   13ad8:	461a      	mov	r2, r3
   13ada:	7b33      	ldrb	r3, [r6, #12]
   13adc:	f023 0305 	bic.w	r3, r3, #5
   13ae0:	f043 0305 	orr.w	r3, r3, #5
   13ae4:	7333      	strb	r3, [r6, #12]
   13ae6:	e6f9      	b.n	138dc <__parse_one_specmb+0x170>
   13ae8:	7b33      	ldrb	r3, [r6, #12]
   13aea:	f043 0304 	orr.w	r3, r3, #4
   13aee:	7333      	strb	r3, [r6, #12]
   13af0:	787b      	ldrb	r3, [r7, #1]
   13af2:	2b6c      	cmp	r3, #108	@ 0x6c
   13af4:	f000 80b9 	beq.w	13c6a <__parse_one_specmb+0x4fe>
   13af8:	1cbb      	adds	r3, r7, #2
   13afa:	4617      	mov	r7, r2
   13afc:	461a      	mov	r2, r3
   13afe:	e6ed      	b.n	138dc <__parse_one_specmb+0x170>
   13b00:	787b      	ldrb	r3, [r7, #1]
   13b02:	2b66      	cmp	r3, #102	@ 0x66
   13b04:	f000 809a 	beq.w	13c3c <__parse_one_specmb+0x4d0>
   13b08:	3b30      	subs	r3, #48	@ 0x30
   13b0a:	2b09      	cmp	r3, #9
   13b0c:	f240 80d4 	bls.w	13cb8 <__parse_one_specmb+0x54c>
   13b10:	4b7e      	ldr	r3, [pc, #504]	@ (13d0c <__parse_one_specmb+0x5a0>)
   13b12:	ee1d 1f70 	mrc	15, 0, r1, cr13, cr0, {3}
   13b16:	2016      	movs	r0, #22
   13b18:	4617      	mov	r7, r2
   13b1a:	447b      	add	r3, pc
   13b1c:	681b      	ldr	r3, [r3, #0]
   13b1e:	3201      	adds	r2, #1
   13b20:	50c8      	str	r0, [r1, r3]
   13b22:	2301      	movs	r3, #1
   13b24:	990a      	ldr	r1, [sp, #40]	@ 0x28
   13b26:	700b      	strb	r3, [r1, #0]
   13b28:	e6d8      	b.n	138dc <__parse_one_specmb+0x170>
   13b2a:	2301      	movs	r3, #1
   13b2c:	3101      	adds	r1, #1
   13b2e:	62b3      	str	r3, [r6, #40]	@ 0x28
   13b30:	d19c      	bne.n	13a6c <__parse_one_specmb+0x300>
   13b32:	9d01      	ldr	r5, [sp, #4]
   13b34:	3401      	adds	r4, #1
   13b36:	f8c6 9024 	str.w	r9, [r6, #36]	@ 0x24
   13b3a:	e798      	b.n	13a6e <__parse_one_specmb+0x302>
   13b3c:	1cbd      	adds	r5, r7, #2
   13b3e:	9501      	str	r5, [sp, #4]
   13b40:	78bb      	ldrb	r3, [r7, #2]
   13b42:	3b30      	subs	r3, #48	@ 0x30
   13b44:	2b09      	cmp	r3, #9
   13b46:	f240 8099 	bls.w	13c7c <__parse_one_specmb+0x510>
   13b4a:	f8c6 901c 	str.w	r9, [r6, #28]
   13b4e:	3401      	adds	r4, #1
   13b50:	f109 0901 	add.w	r9, r9, #1
   13b54:	462f      	mov	r7, r5
   13b56:	9501      	str	r5, [sp, #4]
   13b58:	e676      	b.n	13848 <__parse_one_specmb+0xdc>
   13b5a:	a801      	add	r0, sp, #4
   13b5c:	f7ff fddc 	bl	13718 <read_int>
   13b60:	2800      	cmp	r0, #0
   13b62:	f43f af4b 	beq.w	139fc <__parse_one_specmb+0x290>
   13b66:	9f01      	ldr	r7, [sp, #4]
   13b68:	783b      	ldrb	r3, [r7, #0]
   13b6a:	2b24      	cmp	r3, #36	@ 0x24
   13b6c:	f47f af46 	bne.w	139fc <__parse_one_specmb+0x290>
   13b70:	1c41      	adds	r1, r0, #1
   13b72:	f43f af43 	beq.w	139fc <__parse_one_specmb+0x290>
   13b76:	1e43      	subs	r3, r0, #1
   13b78:	6233      	str	r3, [r6, #32]
   13b7a:	3701      	adds	r7, #1
   13b7c:	9701      	str	r7, [sp, #4]
   13b7e:	f8da 3000 	ldr.w	r3, [sl]
   13b82:	4298      	cmp	r0, r3
   13b84:	bf38      	it	cc
   13b86:	4618      	movcc	r0, r3
   13b88:	f8ca 0000 	str.w	r0, [sl]
   13b8c:	6a33      	ldr	r3, [r6, #32]
   13b8e:	42a3      	cmp	r3, r4
   13b90:	f6bf ae52 	bge.w	13838 <__parse_one_specmb+0xcc>
   13b94:	e732      	b.n	139fc <__parse_one_specmb+0x290>
   13b96:	4b60      	ldr	r3, [pc, #384]	@ (13d18 <__parse_one_specmb+0x5ac>)
   13b98:	447b      	add	r3, pc
   13b9a:	681b      	ldr	r3, [r3, #0]
   13b9c:	f853 5022 	ldr.w	r5, [r3, r2, lsl #2]
   13ba0:	2d00      	cmp	r5, #0
   13ba2:	f43f aea8 	beq.w	138f6 <__parse_one_specmb+0x18a>
   13ba6:	f106 0228 	add.w	r2, r6, #40	@ 0x28
   13baa:	f106 0330 	add.w	r3, r6, #48	@ 0x30
   13bae:	2101      	movs	r1, #1
   13bb0:	4630      	mov	r0, r6
   13bb2:	47a8      	blx	r5
   13bb4:	68b2      	ldr	r2, [r6, #8]
   13bb6:	2800      	cmp	r0, #0
   13bb8:	62f0      	str	r0, [r6, #44]	@ 0x2c
   13bba:	f6ff ae9c 	blt.w	138f6 <__parse_one_specmb+0x18a>
   13bbe:	6a73      	ldr	r3, [r6, #36]	@ 0x24
   13bc0:	3301      	adds	r3, #1
   13bc2:	f47f af40 	bne.w	13a46 <__parse_one_specmb+0x2da>
   13bc6:	2800      	cmp	r0, #0
   13bc8:	f43f af3d 	beq.w	13a46 <__parse_one_specmb+0x2da>
   13bcc:	4404      	add	r4, r0
   13bce:	f8c6 9024 	str.w	r9, [r6, #36]	@ 0x24
   13bd2:	e738      	b.n	13a46 <__parse_one_specmb+0x2da>
   13bd4:	783b      	ldrb	r3, [r7, #0]
   13bd6:	f852 3023 	ldr.w	r3, [r2, r3, lsl #2]
   13bda:	2b00      	cmp	r3, #0
   13bdc:	f43f ae40 	beq.w	13860 <__parse_one_specmb+0xf4>
   13be0:	4631      	mov	r1, r6
   13be2:	a801      	add	r0, sp, #4
   13be4:	f017 fc22 	bl	2b42c <__handle_registered_modifier_mb>
   13be8:	9f01      	ldr	r7, [sp, #4]
   13bea:	2800      	cmp	r0, #0
   13bec:	f47f ae38 	bne.w	13860 <__parse_one_specmb+0xf4>
   13bf0:	1c7a      	adds	r2, r7, #1
   13bf2:	e673      	b.n	138dc <__parse_one_specmb+0x170>
   13bf4:	2302      	movs	r3, #2
   13bf6:	9d01      	ldr	r5, [sp, #4]
   13bf8:	3101      	adds	r1, #1
   13bfa:	62b3      	str	r3, [r6, #40]	@ 0x28
   13bfc:	f47f af37 	bne.w	13a6e <__parse_one_specmb+0x302>
   13c00:	e798      	b.n	13b34 <__parse_one_specmb+0x3c8>
   13c02:	2303      	movs	r3, #3
   13c04:	9d01      	ldr	r5, [sp, #4]
   13c06:	3101      	adds	r1, #1
   13c08:	62b3      	str	r3, [r6, #40]	@ 0x28
   13c0a:	f47f af30 	bne.w	13a6e <__parse_one_specmb+0x302>
   13c0e:	e791      	b.n	13b34 <__parse_one_specmb+0x3c8>
   13c10:	2305      	movs	r3, #5
   13c12:	9d01      	ldr	r5, [sp, #4]
   13c14:	3101      	adds	r1, #1
   13c16:	62b3      	str	r3, [r6, #40]	@ 0x28
   13c18:	f47f af29 	bne.w	13a6e <__parse_one_specmb+0x302>
   13c1c:	e78a      	b.n	13b34 <__parse_one_specmb+0x3c8>
   13c1e:	f44f 6300 	mov.w	r3, #2048	@ 0x800
   13c22:	9d01      	ldr	r5, [sp, #4]
   13c24:	3101      	adds	r1, #1
   13c26:	62b3      	str	r3, [r6, #40]	@ 0x28
   13c28:	f47f af21 	bne.w	13a6e <__parse_one_specmb+0x302>
   13c2c:	e782      	b.n	13b34 <__parse_one_specmb+0x3c8>
   13c2e:	2304      	movs	r3, #4
   13c30:	9d01      	ldr	r5, [sp, #4]
   13c32:	3101      	adds	r1, #1
   13c34:	62b3      	str	r3, [r6, #40]	@ 0x28
   13c36:	f47f af1a 	bne.w	13a6e <__parse_one_specmb+0x302>
   13c3a:	e77b      	b.n	13b34 <__parse_one_specmb+0x3c8>
   13c3c:	1cba      	adds	r2, r7, #2
   13c3e:	9201      	str	r2, [sp, #4]
   13c40:	78bb      	ldrb	r3, [r7, #2]
   13c42:	3b30      	subs	r3, #48	@ 0x30
   13c44:	2b09      	cmp	r3, #9
   13c46:	f63f af63 	bhi.w	13b10 <__parse_one_specmb+0x3a4>
   13c4a:	a801      	add	r0, sp, #4
   13c4c:	f7ff fd64 	bl	13718 <read_int>
   13c50:	2820      	cmp	r0, #32
   13c52:	d04f      	beq.n	13cf4 <__parse_one_specmb+0x588>
   13c54:	dc42      	bgt.n	13cdc <__parse_one_specmb+0x570>
   13c56:	2808      	cmp	r0, #8
   13c58:	bf08      	it	eq
   13c5a:	9d01      	ldreq	r5, [sp, #4]
   13c5c:	d14d      	bne.n	13cfa <__parse_one_specmb+0x58e>
   13c5e:	7b73      	ldrb	r3, [r6, #13]
   13c60:	462f      	mov	r7, r5
   13c62:	f043 0302 	orr.w	r3, r3, #2
   13c66:	7373      	strb	r3, [r6, #13]
   13c68:	e7c2      	b.n	13bf0 <__parse_one_specmb+0x484>
   13c6a:	3702      	adds	r7, #2
   13c6c:	e720      	b.n	13ab0 <__parse_one_specmb+0x344>
   13c6e:	7b73      	ldrb	r3, [r6, #13]
   13c70:	1cfa      	adds	r2, r7, #3
   13c72:	3702      	adds	r7, #2
   13c74:	f043 0302 	orr.w	r3, r3, #2
   13c78:	7373      	strb	r3, [r6, #13]
   13c7a:	e62f      	b.n	138dc <__parse_one_specmb+0x170>
   13c7c:	a801      	add	r0, sp, #4
   13c7e:	f7ff fd4b 	bl	13718 <read_int>
   13c82:	2800      	cmp	r0, #0
   13c84:	f43f af61 	beq.w	13b4a <__parse_one_specmb+0x3de>
   13c88:	9f01      	ldr	r7, [sp, #4]
   13c8a:	783b      	ldrb	r3, [r7, #0]
   13c8c:	2b24      	cmp	r3, #36	@ 0x24
   13c8e:	f47f af5c 	bne.w	13b4a <__parse_one_specmb+0x3de>
   13c92:	1c43      	adds	r3, r0, #1
   13c94:	f43f af59 	beq.w	13b4a <__parse_one_specmb+0x3de>
   13c98:	1e43      	subs	r3, r0, #1
   13c9a:	61f3      	str	r3, [r6, #28]
   13c9c:	3701      	adds	r7, #1
   13c9e:	9701      	str	r7, [sp, #4]
   13ca0:	f8da 3000 	ldr.w	r3, [sl]
   13ca4:	4298      	cmp	r0, r3
   13ca6:	bf38      	it	cc
   13ca8:	4618      	movcc	r0, r3
   13caa:	f8ca 0000 	str.w	r0, [sl]
   13cae:	69f3      	ldr	r3, [r6, #28]
   13cb0:	2b00      	cmp	r3, #0
   13cb2:	f6bf adc9 	bge.w	13848 <__parse_one_specmb+0xdc>
   13cb6:	e748      	b.n	13b4a <__parse_one_specmb+0x3de>
   13cb8:	a801      	add	r0, sp, #4
   13cba:	f7ff fd2d 	bl	13718 <read_int>
   13cbe:	9f01      	ldr	r7, [sp, #4]
   13cc0:	2820      	cmp	r0, #32
   13cc2:	463d      	mov	r5, r7
   13cc4:	d008      	beq.n	13cd8 <__parse_one_specmb+0x56c>
   13cc6:	dc1c      	bgt.n	13d02 <__parse_one_specmb+0x596>
   13cc8:	2808      	cmp	r0, #8
   13cca:	d0c8      	beq.n	13c5e <__parse_one_specmb+0x4f2>
   13ccc:	2810      	cmp	r0, #16
   13cce:	d11a      	bne.n	13d06 <__parse_one_specmb+0x59a>
   13cd0:	7b33      	ldrb	r3, [r6, #12]
   13cd2:	f043 0302 	orr.w	r3, r3, #2
   13cd6:	7333      	strb	r3, [r6, #12]
   13cd8:	1c6a      	adds	r2, r5, #1
   13cda:	e5ff      	b.n	138dc <__parse_one_specmb+0x170>
   13cdc:	2840      	cmp	r0, #64	@ 0x40
   13cde:	d10e      	bne.n	13cfe <__parse_one_specmb+0x592>
   13ce0:	9d01      	ldr	r5, [sp, #4]
   13ce2:	7b33      	ldrb	r3, [r6, #12]
   13ce4:	462f      	mov	r7, r5
   13ce6:	1c6a      	adds	r2, r5, #1
   13ce8:	f023 0305 	bic.w	r3, r3, #5
   13cec:	f043 0305 	orr.w	r3, r3, #5
   13cf0:	7333      	strb	r3, [r6, #12]
   13cf2:	e5f3      	b.n	138dc <__parse_one_specmb+0x170>
   13cf4:	9f01      	ldr	r7, [sp, #4]
   13cf6:	1c7a      	adds	r2, r7, #1
   13cf8:	e5f0      	b.n	138dc <__parse_one_specmb+0x170>
   13cfa:	2810      	cmp	r0, #16
   13cfc:	d0fa      	beq.n	13cf4 <__parse_one_specmb+0x588>
   13cfe:	9a01      	ldr	r2, [sp, #4]
   13d00:	e706      	b.n	13b10 <__parse_one_specmb+0x3a4>
   13d02:	2840      	cmp	r0, #64	@ 0x40
   13d04:	d0ed      	beq.n	13ce2 <__parse_one_specmb+0x576>
   13d06:	463a      	mov	r2, r7
   13d08:	e702      	b.n	13b10 <__parse_one_specmb+0x3a4>
   13d0a:	bf00      	nop
   13d0c:	0004e602 	.word	0x0004e602
   13d10:	00052046 	.word	0x00052046
   13d14:	00051fb0 	.word	0x00051fb0
   13d18:	00051d08 	.word	0x00051d08

00013d1c <__libc_message_impl>:
   13d1c:	b40f      	push	{r0, r1, r2, r3}
   13d1e:	494a      	ldr	r1, [pc, #296]	@ (13e48 <__libc_message_impl+0x12c>)
   13d20:	e92d 4880 	stmdb	sp!, {r7, fp, lr}
   13d24:	4a49      	ldr	r2, [pc, #292]	@ (13e4c <__libc_message_impl+0x130>)
   13d26:	b093      	sub	sp, #76	@ 0x4c
   13d28:	4479      	add	r1, pc
   13d2a:	ab16      	add	r3, sp, #88	@ 0x58
   13d2c:	f8df b120 	ldr.w	fp, [pc, #288]	@ 13e50 <__libc_message_impl+0x134>
   13d30:	588a      	ldr	r2, [r1, r2]
   13d32:	44fb      	add	fp, pc
   13d34:	f853 5b04 	ldr.w	r5, [r3], #4
   13d38:	6812      	ldr	r2, [r2, #0]
   13d3a:	9211      	str	r2, [sp, #68]	@ 0x44
   13d3c:	f04f 0200 	mov.w	r2, #0
   13d40:	9302      	str	r3, [sp, #8]
   13d42:	782e      	ldrb	r6, [r5, #0]
   13d44:	2e00      	cmp	r6, #0
   13d46:	d06f      	beq.n	13e28 <__libc_message_impl+0x10c>
   13d48:	ac03      	add	r4, sp, #12
   13d4a:	f04f 0a00 	mov.w	sl, #0
   13d4e:	4627      	mov	r7, r4
   13d50:	46a0      	mov	r8, r4
   13d52:	46d1      	mov	r9, sl
   13d54:	4633      	mov	r3, r6
   13d56:	4628      	mov	r0, r5
   13d58:	e005      	b.n	13d66 <__libc_message_impl+0x4a>
   13d5a:	2125      	movs	r1, #37	@ 0x25
   13d5c:	3001      	adds	r0, #1
   13d5e:	f004 ff55 	bl	18c0c <__strchrnul>
   13d62:	7803      	ldrb	r3, [r0, #0]
   13d64:	b123      	cbz	r3, 13d70 <__libc_message_impl+0x54>
   13d66:	2b25      	cmp	r3, #37	@ 0x25
   13d68:	d1f7      	bne.n	13d5a <__libc_message_impl+0x3e>
   13d6a:	7843      	ldrb	r3, [r0, #1]
   13d6c:	2b73      	cmp	r3, #115	@ 0x73
   13d6e:	d1f4      	bne.n	13d5a <__libc_message_impl+0x3e>
   13d70:	2e25      	cmp	r6, #37	@ 0x25
   13d72:	d05b      	beq.n	13e2c <__libc_message_impl+0x110>
   13d74:	1b43      	subs	r3, r0, r5
   13d76:	462e      	mov	r6, r5
   13d78:	4605      	mov	r5, r0
   13d7a:	e9c8 6300 	strd	r6, r3, [r8]
   13d7e:	449a      	add	sl, r3
   13d80:	f109 0201 	add.w	r2, r9, #1
   13d84:	f108 0808 	add.w	r8, r8, #8
   13d88:	782e      	ldrb	r6, [r5, #0]
   13d8a:	b10e      	cbz	r6, 13d90 <__libc_message_impl+0x74>
   13d8c:	4691      	mov	r9, r2
   13d8e:	e7e1      	b.n	13d54 <__libc_message_impl+0x38>
   13d90:	2002      	movs	r0, #2
   13d92:	4621      	mov	r1, r4
   13d94:	f04f 0c92 	mov.w	ip, #146	@ 0x92
   13d98:	f7fc fe12 	bl	109c0 <__libc_do_syscall>
   13d9c:	1d01      	adds	r1, r0, #4
   13d9e:	bf14      	ite	ne
   13da0:	2300      	movne	r3, #0
   13da2:	2301      	moveq	r3, #1
   13da4:	f510 5f80 	cmn.w	r0, #4096	@ 0x1000
   13da8:	bf98      	it	ls
   13daa:	2300      	movls	r3, #0
   13dac:	2b00      	cmp	r3, #0
   13dae:	d1ef      	bne.n	13d90 <__libc_message_impl+0x74>
   13db0:	4a28      	ldr	r2, [pc, #160]	@ (13e54 <__libc_message_impl+0x138>)
   13db2:	4618      	mov	r0, r3
   13db4:	f85b 2002 	ldr.w	r2, [fp, r2]
   13db8:	9301      	str	r3, [sp, #4]
   13dba:	6813      	ldr	r3, [r2, #0]
   13dbc:	2203      	movs	r2, #3
   13dbe:	eb0a 0503 	add.w	r5, sl, r3
   13dc2:	425b      	negs	r3, r3
   13dc4:	401d      	ands	r5, r3
   13dc6:	f04f 33ff 	mov.w	r3, #4294967295	@ 0xffffffff
   13dca:	4629      	mov	r1, r5
   13dcc:	9300      	str	r3, [sp, #0]
   13dce:	2322      	movs	r3, #34	@ 0x22
   13dd0:	f006 fefa 	bl	1abc8 <__mmap>
   13dd4:	4606      	mov	r6, r0
   13dd6:	1c43      	adds	r3, r0, #1
   13dd8:	d026      	beq.n	13e28 <__libc_message_impl+0x10c>
   13dda:	3408      	adds	r4, #8
   13ddc:	f840 5b04 	str.w	r5, [r0], #4
   13de0:	eb04 09c9 	add.w	r9, r4, r9, lsl #3
   13de4:	e000      	b.n	13de8 <__libc_message_impl+0xcc>
   13de6:	3408      	adds	r4, #8
   13de8:	e9d7 1200 	ldrd	r1, r2, [r7]
   13dec:	f7fc e9c4 	blx	10178 <_init+0x10>
   13df0:	687a      	ldr	r2, [r7, #4]
   13df2:	4603      	mov	r3, r0
   13df4:	4627      	mov	r7, r4
   13df6:	454c      	cmp	r4, r9
   13df8:	4410      	add	r0, r2
   13dfa:	d1f4      	bne.n	13de6 <__libc_message_impl+0xca>
   13dfc:	2000      	movs	r0, #0
   13dfe:	5498      	strb	r0, [r3, r2]
   13e00:	4a15      	ldr	r2, [pc, #84]	@ (13e58 <__libc_message_impl+0x13c>)
   13e02:	4629      	mov	r1, r5
   13e04:	4630      	mov	r0, r6
   13e06:	447a      	add	r2, pc
   13e08:	f006 ff92 	bl	1ad30 <__set_vma_name>
   13e0c:	4b13      	ldr	r3, [pc, #76]	@ (13e5c <__libc_message_impl+0x140>)
   13e0e:	447b      	add	r3, pc
   13e10:	e853 0f00 	ldrex	r0, [r3]
   13e14:	e843 6200 	strex	r2, r6, [r3]
   13e18:	2a00      	cmp	r2, #0
   13e1a:	d1f9      	bne.n	13e10 <__libc_message_impl+0xf4>
   13e1c:	f3bf 8f5b 	dmb	ish
   13e20:	b110      	cbz	r0, 13e28 <__libc_message_impl+0x10c>
   13e22:	6801      	ldr	r1, [r0, #0]
   13e24:	f006 ff0c 	bl	1ac40 <__munmap>
   13e28:	f7fc f9ca 	bl	101c0 <abort>
   13e2c:	786b      	ldrb	r3, [r5, #1]
   13e2e:	2b73      	cmp	r3, #115	@ 0x73
   13e30:	d1a0      	bne.n	13d74 <__libc_message_impl+0x58>
   13e32:	9b02      	ldr	r3, [sp, #8]
   13e34:	3502      	adds	r5, #2
   13e36:	1d1a      	adds	r2, r3, #4
   13e38:	9202      	str	r2, [sp, #8]
   13e3a:	681e      	ldr	r6, [r3, #0]
   13e3c:	4630      	mov	r0, r6
   13e3e:	f004 ff1f 	bl	18c80 <strlen>
   13e42:	4603      	mov	r3, r0
   13e44:	e799      	b.n	13d7a <__libc_message_impl+0x5e>
   13e46:	bf00      	nop
   13e48:	0004e2d4 	.word	0x0004e2d4
   13e4c:	00000040 	.word	0x00000040
   13e50:	0004e2ca 	.word	0x0004e2ca
   13e54:	0000020c 	.word	0x0000020c
   13e58:	000337c6 	.word	0x000337c6
   13e5c:	0004f642 	.word	0x0004f642
